(lp0
(I1
(lp1
(lp2
S'23.5642033333'
p3
aS'87.2830883333'
p4
aS'13:10:47'
p5
aI1274
aI1
aI1
aI1
aa(lp6
S'23.5641966667'
p7
aS'87.2831216667'
p8
aS'16:05:55'
p9
aI1228
aI2
aI1
aI1
aa(lp10
S'23.5642116667'
p11
aS'87.2831533333'
p12
aS'08:28:04'
p13
aI1756
aI3
aI1
aI1
aa(lp14
S'23.564335'
p15
aS'87.282925'
p16
aS'13:28:52'
p17
aI67
aI4
aI1
aI1
aa(lp18
S'23.564225'
p19
aS'87.2831216667'
p20
aS'16:59:47'
p21
aI645
aI5
aI1
aI1
aa(lp22
S'23.56422'
p23
aS'87.2830066667'
p24
aS'10:24:47'
p25
aI1249
aI6
aI1
aI1
aa(lp26
S'23.5641716667'
p27
aS'87.28304'
p28
aS'13:25:09'
p29
aI947
aI7
aI1
aI1
aa(lp30
S'23.56422'
p31
aS'87.2831216667'
p32
aS'16:52:22'
p33
aI771
aI8
aI1
aI1
aa(lp34
S'23.5642'
p35
aS'87.283105'
p36
aS'12:33:15'
p37
aI249
aI9
aI1
aI1
aa(lp38
S'23.5641883333'
p39
aS'87.2831216667'
p40
aS'18:48:27'
p41
aI579
aI10
aI1
aI1
aa(lp42
S'23.5642116667'
p43
aS'87.28304'
p44
aS'08:45:24'
p45
aI1523
aI11
aI1
aI1
aa(lp46
S'23.5642366667'
p47
aS'87.2829583333'
p48
aS'12:24:17'
p49
aI2639
aI12
aI1
aI1
aa(lp50
S'23.5642933333'
p51
aS'87.2829416667'
p52
aS'15:29:48'
p53
aI16
aI13
aI1
aI1
aa(lp54
S'23.5642033333'
p55
aS'87.2830716667'
p56
aS'10:00:00'
p57
aI93
aI14
aI1
aI1
aa(lp58
S'23.564225'
p59
aS'87.283105'
p60
aS'09:57:52'
p61
aI1662
aI15
aI1
aI1
aa(lp62
S'23.564225'
p63
aS'87.2830716667'
p64
aS'13:03:46'
p65
aI942
aI16
aI1
aI1
aa(lp66
S'23.5641966667'
p67
aS'87.2830716667'
p68
aS'16:19:53'
p69
aI1040
aI17
aI1
aI1
aa(lp70
S'23.5642166667'
p71
aS'87.2830066667'
p72
aS'08:18:26'
p73
aI1782
aI19
aI1
aI1
aa(lp74
S'23.5642983333'
p75
aS'87.28304'
p76
aS'14:07:34'
p77
aI1489
aI20
aI1
aI1
aa(lp78
S'23.564245'
p79
aS'87.2830883333'
p80
aS'17:03:50'
p81
aI608
aI21
aI1
aI1
aa(lp82
S'23.5642566667'
p83
aS'87.2830066667'
p84
aS'10:35:39'
p85
aI1639
aI23
aI1
aI1
aa(lp86
S'23.5642166667'
p87
aS'87.283055'
p88
aS'13:32:53'
p89
aI939
aI24
aI1
aI1
aa(lp90
S'23.5642083333'
p91
aS'87.2830883333'
p92
aS'16:47:35'
p93
aI1161
aI25
aI1
aI1
aa(lp94
S'23.5642616667'
p95
aS'87.2830883333'
p96
aS'18:13:27'
p97
aI285
aI26
aI1
aI1
aa(lp98
S'23.5641916667'
p99
aS'87.283055'
p100
aS'07:17:49'
p101
aI139
aI27
aI1
aI1
aa(lp102
S'23.5641833333'
p103
aS'87.2831366667'
p104
aS'11:45:12'
p105
aI811
aI28
aI1
aI1
aa(lp106
S'23.5642766667'
p107
aS'87.28291'
p108
aS'14:42:49'
p109
aI461
aI29
aI1
aI1
aa(lp110
S'23.5641966667'
p111
aS'87.283105'
p112
aS'18:03:14'
p113
aI882
aI30
aI1
aI1
aa(lp114
S'23.5642083333'
p115
aS'87.2831216667'
p116
aS'08:11:03'
p117
aI445
aI31
aI1
aI1
aa(lp118
S'23.564245'
p119
aS'87.2830716667'
p120
aS'11:25:05'
p121
aI552
aI32
aI1
aI1
aa(lp122
S'23.564225'
p123
aS'87.2830883333'
p124
aS'14:52:27'
p125
aI832
aI33
aI1
aI1
aa(lp126
S'23.5642166667'
p127
aS'87.28304'
p128
aS'09:28:47'
p129
aI77654
aI34
aI1
aI1
aa(lp130
S'23.5642616667'
p131
aS'87.2830716667'
p132
aS'13:04:17'
p133
aI1016
aI35
aI1
aI1
aa(lp134
S'23.5641883333'
p135
aS'87.2831366667'
p136
aS'16:19:15'
p137
aI1076
aI36
aI1
aI1
aa(lp138
S'23.5641833333'
p139
aS'87.2831216667'
p140
aS'08:32:58'
p141
aI1657
aI38
aI1
aI1
aa(lp142
S'23.5642816667'
p143
aS'87.2829416667'
p144
aS'14:14:48'
p145
aI588
aI39
aI1
aI1
aa(lp146
S'23.5642033333'
p147
aS'87.2831216667'
p148
aS'17:01:05'
p149
aI664
aI40
aI1
aI1
aa(lp150
S'23.5641833333'
p151
aS'87.2831366667'
p152
aS'08:01:28'
p153
aI221
aI41
aI1
aI1
aa(lp154
S'23.5642333333'
p155
aS'87.28304'
p156
aS'11:25:28'
p157
aI1978
aI42
aI1
aI1
aa(lp158
S'23.5642616667'
p159
aS'87.283055'
p160
aS'15:18:02'
p161
aI1520
aI43
aI1
aI1
aatp162
a(I2
(lp163
(lp164
S'23.5639266667'
p165
aS'87.28382'
p166
aS'13:17:35'
p167
aI6
aI1
aI2
aI2
aa(lp168
S'23.564005'
p169
aS'87.2838366667'
p170
aS'13:30:53'
p171
aI274
aI4
aI2
aI2
aa(lp172
S'23.5638216667'
p173
aS'87.283755'
p174
aS'10:38:03'
p175
aI35
aI6
aI2
aI2
aa(lp176
S'23.5637366667'
p177
aS'87.2837883333'
p178
aS'16:57:40'
p179
aI4
aI8
aI2
aI2
aa(lp180
S'23.563875'
p181
aS'87.28382'
p182
aS'12:38:15'
p183
aI4
aI9
aI2
aI2
aa(lp184
S'23.563985'
p185
aS'87.2837883333'
p186
aS'08:56:35'
p187
aI1
aI11
aI2
aI2
aa(lp188
S'23.5640083333'
p189
aS'87.2838533333'
p190
aS'10:03:07'
p191
aI4
aI15
aI2
aI2
aa(lp192
S'23.5638183333'
p193
aS'87.2837883333'
p194
aS'07:20:48'
p195
aI1
aI27
aI2
aI2
aa(lp196
S'23.5638383333'
p197
aS'87.2838533333'
p198
aS'11:59:30'
p199
aI2
aI28
aI2
aI2
aa(lp200
S'23.5638533333'
p201
aS'87.2838866667'
p202
aS'16:32:04'
p203
aI27
aI36
aI2
aI2
aa(lp204
S'23.5638533333'
p205
aS'87.283805'
p206
aS'14:22:20'
p207
aI10
aI39
aI2
aI2
aa(lp208
S'23.5637483333'
p209
aS'87.2837883333'
p210
aS'17:12:06'
p211
aI22
aI40
aI2
aI2
aa(lp212
S'23.5639633333'
p213
aS'87.28387'
p214
aS'11:46:26'
p215
aI1
aI42
aI2
aI2
aatp216
a(I3
(lp217
(lp218
S'23.55933'
p219
aS'87.2847'
p220
aS'13:19:30'
p221
aI69
aI1
aI3
aI3
aa(lp222
S'23.5594183333'
p223
aS'87.2846666667'
p224
aS'16:29:47'
p225
aI15
aI2
aI3
aI3
aa(lp226
S'23.5593383333'
p227
aS'87.2847316667'
p228
aS'08:45:26'
p229
aI18
aI3
aI2
aI3
aa(lp230
S'23.5593083333'
p231
aS'87.2847'
p232
aS'14:24:31'
p233
aI17
aI4
aI7
aI3
aa(lp234
S'23.5593583333'
p235
aS'87.2847316667'
p236
aS'17:13:44'
p237
aI3
aI5
aI2
aI3
aa(lp238
S'23.5593383333'
p239
aS'87.2846666667'
p240
aS'10:40:36'
p241
aI52
aI6
aI3
aI3
aa(lp242
S'23.559395'
p243
aS'87.284635'
p244
aS'13:38:07'
p245
aI52
aI7
aI2
aI3
aa(lp246
S'23.5592933333'
p247
aS'87.2847'
p248
aS'12:40:01'
p249
aI9
aI9
aI3
aI3
aa(lp250
S'23.5593166667'
p251
aS'87.2847316667'
p252
aS'18:57:57'
p253
aI14
aI10
aI3
aI3
aa(lp254
S'23.55933'
p255
aS'87.2846833333'
p256
aS'08:58:38'
p257
aI29
aI11
aI3
aI3
aa(lp258
S'23.559285'
p259
aS'87.2847'
p260
aS'12:52:11'
p261
aI18
aI12
aI3
aI3
aa(lp262
S'23.559345'
p263
aS'87.2847166667'
p264
aS'16:20:52'
p265
aI7
aI13
aI5
aI3
aa(lp266
S'23.5592966667'
p267
aS'87.2846833333'
p268
aS'10:04:13'
p269
aI9
aI14
aI3
aI3
aa(lp270
S'23.55935'
p271
aS'87.2847'
p272
aS'10:05:03'
p273
aI21
aI15
aI3
aI3
aa(lp274
S'23.5592516667'
p275
aS'87.2847166667'
p276
aS'13:19:06'
p277
aI42
aI16
aI3
aI3
aa(lp278
S'23.5591183333'
p279
aS'87.28483'
p280
aS'16:34:49'
p281
aI9
aI17
aI4
aI3
aa(lp282
S'23.5593666667'
p283
aS'87.2847316667'
p284
aS'05:08:54'
p285
aI4028
aI18
aI2
aI3
aa(lp286
S'23.559305'
p287
aS'87.2847'
p288
aS'08:46:21'
p289
aI31
aI19
aI2
aI3
aa(lp290
S'23.5593816667'
p291
aS'87.2846183333'
p292
aS'14:24:03'
p293
aI20
aI20
aI2
aI3
aa(lp294
S'23.5593216667'
p295
aS'87.2847166667'
p296
aS'17:14:49'
p297
aI50
aI21
aI2
aI3
aa(lp298
S'23.5594233333'
p299
aS'87.2846833333'
p300
aS'10:54:42'
p301
aI76
aI23
aI2
aI3
aa(lp302
S'23.5593083333'
p303
aS'87.2846833333'
p304
aS'13:43:54'
p305
aI9
aI24
aI2
aI3
aa(lp306
S'23.5593083333'
p307
aS'87.2847'
p308
aS'17:00:39'
p309
aI4
aI25
aI2
aI3
aa(lp310
S'23.5593133333'
p311
aS'87.2846833333'
p312
aS'18:18:15'
p313
aI7
aI26
aI3
aI3
aa(lp314
S'23.5592716667'
p315
aS'87.2846833333'
p316
aS'07:23:09'
p317
aI1
aI27
aI4
aI3
aa(lp318
S'23.5592483333'
p319
aS'87.2847816667'
p320
aS'12:01:13'
p321
aI21
aI28
aI3
aI3
aa(lp322
S'23.5593016667'
p323
aS'87.2846833333'
p324
aS'14:49:13'
p325
aI10
aI29
aI2
aI3
aa(lp326
S'23.5592933333'
p327
aS'87.2847316667'
p328
aS'18:20:00'
p329
aI1
aI30
aI2
aI3
aa(lp330
S'23.559345'
p331
aS'87.2847316667'
p332
aS'08:19:36'
p333
aI1
aI31
aI2
aI3
aa(lp334
S'23.55935'
p335
aS'87.2846833333'
p336
aS'15:03:12'
p337
aI31
aI33
aI2
aI3
aa(lp338
S'23.55926'
p339
aS'87.2847483333'
p340
aS'10:04:20'
p341
aI13
aI34
aI3
aI3
aa(lp342
S'23.559345'
p343
aS'87.284765'
p344
aS'13:19:51'
p345
aI20
aI35
aI2
aI3
aa(lp346
S'23.5593216667'
p347
aS'87.2847316667'
p348
aS'05:26:19'
p349
aI477
aI37
aI2
aI3
aa(lp350
S'23.5593783333'
p351
aS'87.2847316667'
p352
aS'08:47:39'
p353
aI34
aI38
aI4
aI3
aa(lp354
S'23.5594466667'
p355
aS'87.2846516667'
p356
aS'14:24:18'
p357
aI21
aI39
aI3
aI3
aa(lp358
S'23.55933'
p359
aS'87.2847166667'
p360
aS'17:14:56'
p361
aI39
aI40
aI4
aI3
aa(lp362
S'23.5593383333'
p363
aS'87.2847316667'
p364
aS'08:07:36'
p365
aI14
aI41
aI2
aI3
aa(lp366
S'23.5593533333'
p367
aS'87.2847816667'
p368
aS'11:48:43'
p369
aI12
aI42
aI4
aI3
aa(lp370
S'23.559325'
p371
aS'87.2847'
p372
aS'15:29:26'
p373
aI63
aI43
aI2
aI3
aatp374
a(I19
(lp375
(lp376
S'23.5579783333'
p377
aS'87.2854816667'
p378
aS'16:31:03'
p379
aI8
aI2
aI4
aI19
aa(lp380
S'23.55804'
p381
aS'87.285465'
p382
aS'08:46:26'
p383
aI6
aI3
aI3
aI19
aa(lp384
S'23.5579216667'
p385
aS'87.285465'
p386
aS'10:42:09'
p387
aI1
aI6
aI4
aI19
aa(lp388
S'23.5578933333'
p389
aS'87.285465'
p390
aS'13:40:05'
p391
aI13
aI7
aI3
aI19
aa(lp392
S'23.5579983333'
p393
aS'87.2854816667'
p394
aS'18:58:51'
p395
aI4
aI10
aI4
aI19
aa(lp396
S'23.5579166667'
p397
aS'87.2854'
p398
aS'16:35:45'
p399
aI1
aI17
aI5
aI19
aa(lp400
S'23.557961666700002'
p401
aS'87.2854816667'
p402
aS'05:32:16'
p403
aI8
aI18
aI3
aI19
aa(lp404
S'23.5579983333'
p405
aS'87.2854316667'
p406
aS'17:01:20'
p407
aI2
aI25
aI3
aI19
aa(lp408
S'23.5579666667'
p409
aS'87.2854483333'
p410
aS'18:20:41'
p411
aI3
aI30
aI3
aI19
aa(lp412
S'23.5578966667'
p413
aS'87.2854966667'
p414
aS'10:04:58'
p415
aI2
aI34
aI4
aI19
aa(lp416
S'23.5580266667'
p417
aS'87.2854816667'
p418
aS'16:34:57'
p419
aI2
aI36
aI5
aI19
aa(lp420
S'23.5580433333'
p421
aS'87.28553'
p422
aS'08:49:12'
p423
aI10
aI38
aI5
aI19
aa(lp424
S'23.5579583333'
p425
aS'87.2854816667'
p426
aS'14:25:26'
p427
aI2
aI39
aI4
aI19
aa(lp428
S'23.5579783333'
p429
aS'87.2854483333'
p430
aS'17:16:30'
p431
aI136
aI40
aI5
aI19
aatp432
a(I20
(lp433
(lp434
S'23.5562933333'
p435
aS'87.286425'
p436
aS'16:31:49'
p437
aI79
aI2
aI5
aI20
aa(lp438
S'23.55633'
p439
aS'87.2863433333'
p440
aS'12:53:37'
p441
aI4
aI12
aI4
aI20
aa(lp442
S'23.5564'
p443
aS'87.2862783333'
p444
aS'07:24:17'
p445
aI11
aI27
aI5
aI20
aa(lp446
S'23.5563066667'
p447
aS'87.286425'
p448
aS'11:35:39'
p449
aI9
aI32
aI2
aI20
aa(lp450
S'23.55611'
p451
aS'87.286425'
p452
aS'14:26:08'
p453
aI4
aI39
aI5
aI20
aatp454
a(I64
(lp455
(lp456
S'23.5571366667'
p457
aS'87.2858883333'
p458
aS'09:00:01'
p459
aI2
aI11
aI4
aI64
aa(lp460
S'23.5573566667'
p461
aS'87.2858066667'
p462
aS'17:16:36'
p463
aI6
aI21
aI3
aI64
aa(lp464
S'23.5572333333'
p465
aS'87.2858716667'
p466
aS'12:02:27'
p467
aI2
aI28
aI4
aI64
aa(lp468
S'23.5570866667'
p469
aS'87.28597'
p470
aS'15:04:40'
p471
aI47
aI33
aI3
aI64
aa(lp472
S'23.5569116667'
p473
aS'87.28605'
p474
aS'10:05:23'
p475
aI8
aI34
aI5
aI64
aatp476
a(I33
(lp477
(lp478
S'23.55603'
p479
aS'87.2863433333'
p480
aS'08:47:35'
p481
aI17
aI3
aI4
aI33
aa(lp482
S'23.555985'
p483
aS'87.2863266667'
p484
aS'14:26:16'
p485
aI3
aI4
aI8
aI33
aa(lp486
S'23.5560216667'
p487
aS'87.286295'
p488
aS'10:42:52'
p489
aI2
aI6
aI5
aI33
aa(lp490
S'23.55603'
p491
aS'87.2863116667'
p492
aS'16:22:11'
p493
aI5
aI13
aI6
aI33
aa(lp494
S'23.5560083333'
p495
aS'87.2863116667'
p496
aS'17:02:09'
p497
aI7
aI25
aI4
aI33
aa(lp498
S'23.5559233333'
p499
aS'87.2862466667'
p500
aS'07:24:49'
p501
aI5
aI27
aI6
aI33
aa(lp502
S'23.555985'
p503
aS'87.2863116667'
p504
aS'14:50:53'
p505
aI24
aI29
aI3
aI33
aa(lp506
S'23.55594'
p507
aS'87.286295'
p508
aS'10:05:56'
p509
aI7
aI34
aI6
aI33
aa(lp510
S'23.5559933333'
p511
aS'87.2863266667'
p512
aS'05:32:24'
p513
aI216
aI37
aI3
aI33
aa(lp514
S'23.5559566667'
p515
aS'87.2863116667'
p516
aS'08:09:04'
p517
aI5
aI41
aI3
aI33
aatp518
a(I21
(lp519
(lp520
S'23.5555733333'
p521
aS'87.28553'
p522
aS'16:32:51'
p523
aI4
aI2
aI6
aI21
aa(lp524
S'23.555545'
p525
aS'87.2854816667'
p526
aS'08:48:29'
p527
aI2
aI3
aI5
aI21
aa(lp528
S'23.5556666667'
p529
aS'87.2855466667'
p530
aS'13:41:14'
p531
aI3
aI7
aI4
aI21
aa(lp532
S'23.5555366667'
p533
aS'87.2854966667'
p534
aS'12:42:00'
p535
aI1
aI9
aI4
aI21
aa(lp536
S'23.5554716667'
p537
aS'87.2855133333'
p538
aS'11:36:27'
p539
aI11
aI32
aI3
aI21
aa(lp540
S'23.555615'
p541
aS'87.28553'
p542
aS'13:22:49'
p543
aI118
aI35
aI3
aI21
aa(lp544
S'23.5553983333'
p545
aS'87.2854966667'
p546
aS'08:09:39'
p547
aI2
aI41
aI4
aI21
aa(lp548
S'23.5555333333'
p549
aS'87.2854816667'
p550
aS'15:31:50'
p551
aI13
aI43
aI3
aI21
aatp552
a(I4
(lp553
(lp554
S'23.555085'
p555
aS'87.2856933333'
p556
aS'13:23:04'
p557
aI88
aI1
aI4
aI4
aa(lp558
S'23.5550333333'
p559
aS'87.2857583333'
p560
aS'16:33:15'
p561
aI6
aI2
aI7
aI4
aa(lp562
S'23.5550733333'
p563
aS'87.285725'
p564
aS'08:48:59'
p565
aI13
aI3
aI6
aI4
aa(lp566
S'23.55502'
p567
aS'87.285725'
p568
aS'14:27:01'
p569
aI1
aI4
aI9
aI4
aa(lp570
S'23.555065'
p571
aS'87.2857583333'
p572
aS'17:15:50'
p573
aI17
aI5
aI3
aI4
aa(lp574
S'23.5550683333'
p575
aS'87.2856766667'
p576
aS'10:43:36'
p577
aI10
aI6
aI6
aI4
aa(lp578
S'23.555025'
p579
aS'87.2857083333'
p580
aS'13:41:39'
p581
aI8
aI7
aI5
aI4
aa(lp582
S'23.5550616667'
p583
aS'87.285725'
p584
aS'17:00:48'
p585
aI5
aI8
aI4
aI4
aa(lp586
S'23.5550366667'
p587
aS'87.285725'
p588
aS'12:42:20'
p589
aI19
aI9
aI5
aI4
aa(lp590
S'23.5550116667'
p591
aS'87.2857583333'
p592
aS'19:00:11'
p593
aI15
aI10
aI5
aI4
aa(lp594
S'23.5550616667'
p595
aS'87.285725'
p596
aS'16:22:50'
p597
aI16
aI13
aI7
aI4
aa(lp598
S'23.5550116667'
p599
aS'87.2857083333'
p600
aS'10:06:01'
p601
aI10
aI14
aI4
aI4
aa(lp602
S'23.5550683333'
p603
aS'87.2857083333'
p604
aS'10:07:13'
p605
aI4
aI15
aI4
aI4
aa(lp606
S'23.5549833333'
p607
aS'87.285725'
p608
aS'13:21:39'
p609
aI1572
aI16
aI4
aI4
aa(lp610
S'23.55496'
p611
aS'87.2857083333'
p612
aS'16:36:57'
p613
aI20
aI17
aI6
aI4
aa(lp614
S'23.555025'
p615
aS'87.285725'
p616
aS'05:34:22'
p617
aI32
aI18
aI4
aI4
aa(lp618
S'23.5549966667'
p619
aS'87.2857083333'
p620
aS'08:49:27'
p621
aI81
aI19
aI3
aI4
aa(lp622
S'23.5550616667'
p623
aS'87.2857083333'
p624
aS'14:26:11'
p625
aI10
aI20
aI3
aI4
aa(lp626
S'23.55513'
p627
aS'87.2856933333'
p628
aS'17:18:20'
p629
aI59
aI21
aI4
aI4
aa(lp630
S'23.5551133333'
p631
aS'87.2856933333'
p632
aS'10:57:37'
p633
aI8
aI23
aI4
aI4
aa(lp634
S'23.5550333333'
p635
aS'87.2856933333'
p636
aS'13:45:45'
p637
aI34
aI24
aI3
aI4
aa(lp638
S'23.5550616667'
p639
aS'87.285725'
p640
aS'17:02:49'
p641
aI24
aI25
aI5
aI4
aa(lp642
S'23.5550033333'
p643
aS'87.2856933333'
p644
aS'07:25:27'
p645
aI11
aI27
aI7
aI4
aa(lp646
S'23.55498'
p647
aS'87.2857583333'
p648
aS'12:03:34'
p649
aI14
aI28
aI5
aI4
aa(lp650
S'23.5550333333'
p651
aS'87.2856933333'
p652
aS'18:21:55'
p653
aI8
aI30
aI4
aI4
aa(lp654
S'23.555085'
p655
aS'87.2857416667'
p656
aS'08:21:26'
p657
aI33
aI31
aI3
aI4
aa(lp658
S'23.5550283333'
p659
aS'87.2856933333'
p660
aS'10:06:34'
p661
aI21
aI34
aI7
aI4
aa(lp662
S'23.5551916667'
p663
aS'87.2857083333'
p664
aS'13:24:05'
p665
aI11
aI35
aI4
aI4
aa(lp666
S'23.5550283333'
p667
aS'87.2857583333'
p668
aS'16:36:11'
p669
aI2
aI36
aI6
aI4
aa(lp670
S'23.555073333299998'
p671
aS'87.285725'
p672
aS'05:34:06'
p673
aI6
aI37
aI4
aI4
aa(lp674
S'23.5550366667'
p675
aS'87.28579'
p676
aS'08:51:39'
p677
aI25
aI38
aI6
aI4
aa(lp678
S'23.5550683333'
p679
aS'87.2857416667'
p680
aS'14:26:54'
p681
aI17
aI39
aI6
aI4
aa(lp682
S'23.55504'
p683
aS'87.2857083333'
p684
aS'17:18:41'
p685
aI40
aI40
aI6
aI4
aa(lp686
S'23.5550166667'
p687
aS'87.2856933333'
p688
aS'08:09:57'
p689
aI29
aI41
aI5
aI4
aatp690
a(I22
(lp691
(lp692
S'23.55397'
p693
aS'87.28636'
p694
aS'16:33:49'
p695
aI3
aI2
aI8
aI22
aa(lp696
S'23.5539916667'
p697
aS'87.2863433333'
p698
aS'08:49:38'
p699
aI1
aI3
aI7
aI22
aa(lp700
S'23.55395'
p701
aS'87.2863433333'
p702
aS'13:42:21'
p703
aI9
aI7
aI6
aI22
aa(lp704
S'23.5539616667'
p705
aS'87.28636'
p706
aS'12:43:24'
p707
aI21
aI9
aI6
aI22
aa(lp708
S'23.55378'
p709
aS'87.28649'
p710
aS'19:01:26'
p711
aI8
aI10
aI7
aI22
aa(lp712
S'23.5539666667'
p713
aS'87.2863266667'
p714
aS'10:07:46'
p715
aI4
aI15
aI5
aI22
aa(lp716
S'23.5539866667'
p717
aS'87.2863433333'
p718
aS'13:25:41'
p719
aI169
aI16
aI5
aI22
aa(lp720
S'23.5539983333'
p721
aS'87.2863433333'
p722
aS'08:51:41'
p723
aI16
aI19
aI4
aI22
aa(lp724
S'23.5539833333'
p725
aS'87.2862783333'
p726
aS'07:26:07'
p727
aI4
aI27
aI8
aI22
aa(lp728
S'23.5539666667'
p729
aS'87.2864083333'
p730
aS'11:51:13'
p731
aI7
aI42
aI5
aI22
aatp732
a(I23
(lp733
(lp734
S'23.5524616667'
p735
aS'87.2870766667'
p736
aS'16:34:36'
p737
aI13
aI2
aI9
aI23
aa(lp738
S'23.552465'
p739
aS'87.2870433333'
p740
aS'08:50:20'
p741
aI2
aI3
aI8
aI23
aa(lp742
S'23.5524566667'
p743
aS'87.286995'
p744
aS'10:44:54'
p745
aI9
aI6
aI7
aI23
aa(lp746
S'23.5524'
p747
aS'87.2869783333'
p748
aS'10:07:17'
p749
aI3
aI14
aI5
aI23
aa(lp750
S'23.5524116667'
p751
aS'87.2869783333'
p752
aS'10:08:32'
p753
aI4
aI15
aI6
aI23
aa(lp754
S'23.552425'
p755
aS'87.286995'
p756
aS'08:53:10'
p757
aI11
aI19
aI5
aI23
aa(lp758
S'23.5525383333'
p759
aS'87.2870266667'
p760
aS'14:27:36'
p761
aI6
aI20
aI4
aI23
aa(lp762
S'23.5524816667'
p763
aS'87.2870116667'
p764
aS'10:58:43'
p765
aI5
aI23
aI5
aI23
aa(lp766
S'23.55242'
p767
aS'87.2870116667'
p768
aS'07:26:55'
p769
aI22
aI27
aI9
aI23
aa(lp770
S'23.552315'
p771
aS'87.2870266667'
p772
aS'12:04:45'
p773
aI1
aI28
aI6
aI23
aa(lp774
S'23.5524616667'
p775
aS'87.286995'
p776
aS'18:23:01'
p777
aI2
aI30
aI5
aI23
aa(lp778
S'23.5524683333'
p779
aS'87.2870116667'
p780
aS'15:06:44'
p781
aI1
aI33
aI4
aI23
aa(lp782
S'23.5524566667'
p783
aS'87.2870433333'
p784
aS'13:26:11'
p785
aI251
aI35
aI5
aI23
aa(lp786
S'23.552445'
p787
aS'87.28706'
p788
aS'08:53:22'
p789
aI8
aI38
aI8
aI23
aa(lp790
S'23.552425'
p791
aS'87.2870266667'
p792
aS'17:20:37'
p793
aI17
aI40
aI7
aI23
aa(lp794
S'23.5524616667'
p795
aS'87.2870766667'
p796
aS'11:52:03'
p797
aI10
aI42
aI6
aI23
aa(lp798
S'23.5524816667'
p799
aS'87.2870266667'
p800
aS'15:33:13'
p801
aI1
aI43
aI4
aI23
aatp802
a(I5
(lp803
(lp804
S'23.5511716667'
p805
aS'87.2860016667'
p806
aS'13:27:03'
p807
aI30
aI1
aI5
aI5
aa(lp808
S'23.551215'
p809
aS'87.2860833333'
p810
aS'16:35:22'
p811
aI5
aI2
aI10
aI5
aa(lp812
S'23.551245'
p813
aS'87.2860016667'
p814
aS'08:50:58'
p815
aI7
aI3
aI9
aI5
aa(lp816
S'23.5512083333'
p817
aS'87.286035'
p818
aS'17:17:35'
p819
aI6
aI5
aI4
aI5
aa(lp820
S'23.5511633333'
p821
aS'87.2859533333'
p822
aS'10:45:37'
p823
aI1
aI6
aI8
aI5
aa(lp824
S'23.5511866667'
p825
aS'87.285985'
p826
aS'12:44:51'
p827
aI16
aI9
aI7
aI5
aa(lp828
S'23.5511916667'
p829
aS'87.28605'
p830
aS'19:02:44'
p831
aI4
aI10
aI8
aI5
aa(lp832
S'23.5511383333'
p833
aS'87.285985'
p834
aS'12:55:45'
p835
aI10
aI12
aI5
aI5
aa(lp836
S'23.5511866667'
p837
aS'87.285985'
p838
aS'16:24:37'
p839
aI16
aI13
aI8
aI5
aa(lp840
S'23.55115'
p841
aS'87.2860016667'
p842
aS'10:07:56'
p843
aI12
aI14
aI6
aI5
aa(lp844
S'23.5512316667'
p845
aS'87.286035'
p846
aS'10:09:03'
p847
aI2
aI15
aI7
aI5
aa(lp848
S'23.5511716667'
p849
aS'87.2860016667'
p850
aS'13:28:16'
p851
aI837
aI16
aI6
aI5
aa(lp852
S'23.5511266667'
p853
aS'87.285985'
p854
aS'16:38:51'
p855
aI7
aI17
aI7
aI5
aa(lp856
S'23.5511583333'
p857
aS'87.285985'
p858
aS'08:54:25'
p859
aI41
aI19
aI6
aI5
aa(lp860
S'23.5512'
p861
aS'87.2860183333'
p862
aS'17:22:08'
p863
aI25
aI21
aI5
aI5
aa(lp864
S'23.551265'
p865
aS'87.286035'
p866
aS'10:59:18'
p867
aI8
aI23
aI6
aI5
aa(lp868
S'23.5511583333'
p869
aS'87.2860016667'
p870
aS'13:47:31'
p871
aI14
aI24
aI4
aI5
aa(lp872
S'23.5512516667'
p873
aS'87.2861'
p874
aS'17:04:43'
p875
aI8
aI25
aI6
aI5
aa(lp876
S'23.551215'
p877
aS'87.285985'
p878
aS'18:22:12'
p879
aI2
aI26
aI5
aI5
aa(lp880
S'23.5511183333'
p881
aS'87.2860183333'
p882
aS'07:27:55'
p883
aI29
aI27
aI10
aI5
aa(lp884
S'23.5510733333'
p885
aS'87.2860183333'
p886
aS'12:05:22'
p887
aI8
aI28
aI7
aI5
aa(lp888
S'23.5512083333'
p889
aS'87.2860016667'
p890
aS'18:23:44'
p891
aI18
aI30
aI6
aI5
aa(lp892
S'23.55122'
p893
aS'87.2860183333'
p894
aS'08:24:20'
p895
aI9
aI31
aI4
aI5
aa(lp896
S'23.5511666667'
p897
aS'87.2860183333'
p898
aS'11:38:30'
p899
aI5
aI32
aI4
aI5
aa(lp900
S'23.5512116667'
p901
aS'87.2860183333'
p902
aS'15:07:22'
p903
aI11
aI33
aI5
aI5
aa(lp904
S'23.55115'
p905
aS'87.2860016667'
p906
aS'10:08:27'
p907
aI4
aI34
aI8
aI5
aa(lp908
S'23.5510283333'
p909
aS'87.285985'
p910
aS'16:38:05'
p911
aI15
aI36
aI8
aI5
aa(lp912
S'23.5511466667'
p913
aS'87.2860183333'
p914
aS'08:54:05'
p915
aI33
aI38
aI9
aI5
aa(lp916
S'23.5511266667'
p917
aS'87.285985'
p918
aS'14:29:01'
p919
aI5
aI39
aI8
aI5
aa(lp920
S'23.55118'
p921
aS'87.2860183333'
p922
aS'17:21:37'
p923
aI36
aI40
aI8
aI5
aa(lp924
S'23.551175'
p925
aS'87.2860666667'
p926
aS'11:52:52'
p927
aI6
aI42
aI7
aI5
aatp928
a(I6
(lp929
(lp930
S'23.55006'
p931
aS'87.2851066667'
p932
aS'13:28:17'
p933
aI8
aI1
aI6
aI6
aa(lp934
S'23.5500433333'
p935
aS'87.2851383333'
p936
aS'16:35:55'
p937
aI16
aI2
aI11
aI6
aa(lp938
S'23.55008'
p939
aS'87.28509'
p940
aS'08:51:35'
p941
aI8
aI3
aI10
aI6
aa(lp942
S'23.5500483333'
p943
aS'87.2851066667'
p944
aS'14:28:56'
p945
aI4
aI4
aI10
aI6
aa(lp946
S'23.5500283333'
p947
aS'87.28509'
p948
aS'13:43:53'
p949
aI19
aI7
aI7
aI6
aa(lp950
S'23.5500516667'
p951
aS'87.2851233333'
p952
aS'17:02:24'
p953
aI1
aI8
aI5
aI6
aa(lp954
S'23.5500233333'
p955
aS'87.2850583333'
p956
aS'12:45:33'
p957
aI1
aI9
aI8
aI6
aa(lp958
S'23.5501016667'
p959
aS'87.2851716667'
p960
aS'19:03:23'
p961
aI13
aI10
aI9
aI6
aa(lp962
S'23.55008'
p963
aS'87.2851066667'
p964
aS'16:25:29'
p965
aI2
aI13
aI9
aI6
aa(lp966
S'23.5500283333'
p967
aS'87.28509'
p968
aS'10:08:40'
p969
aI10
aI14
aI7
aI6
aa(lp970
S'23.55008'
p971
aS'87.2851066667'
p972
aS'10:09:40'
p973
aI5
aI15
aI8
aI6
aa(lp974
S'23.54997'
p975
aS'87.28509'
p976
aS'13:30:27'
p977
aI8
aI16
aI7
aI6
aa(lp978
S'23.5500283333'
p979
aS'87.2851066667'
p980
aS'16:39:26'
p981
aI17
aI17
aI8
aI6
aa(lp982
S'23.550105'
p983
aS'87.2851383333'
p984
aS'05:36:59'
p985
aI10
aI18
aI5
aI6
aa(lp986
S'23.5500566667'
p987
aS'87.28509'
p988
aS'08:55:35'
p989
aI1
aI19
aI7
aI6
aa(lp990
S'23.5501016667'
p991
aS'87.2851066667'
p992
aS'14:28:38'
p993
aI3
aI20
aI5
aI6
aa(lp994
S'23.5501383333'
p995
aS'87.2851233333'
p996
aS'10:59:50'
p997
aI14
aI23
aI7
aI6
aa(lp998
S'23.5500933333'
p999
aS'87.285155'
p1000
aS'13:48:23'
p1001
aI11
aI24
aI5
aI6
aa(lp1002
S'23.550015'
p1003
aS'87.285155'
p1004
aS'12:06:20'
p1005
aI19
aI28
aI8
aI6
aa(lp1006
S'23.550065'
p1007
aS'87.2851383333'
p1008
aS'14:53:55'
p1009
aI4
aI29
aI4
aI6
aa(lp1010
S'23.5500716667'
p1011
aS'87.2850733333'
p1012
aS'18:24:32'
p1013
aI7
aI30
aI7
aI6
aa(lp1014
S'23.5500316667'
p1015
aS'87.285155'
p1016
aS'11:39:06'
p1017
aI20
aI32
aI5
aI6
aa(lp1018
S'23.550035'
p1019
aS'87.2851066667'
p1020
aS'10:08:57'
p1021
aI12
aI34
aI9
aI6
aa(lp1022
S'23.5500283333'
p1023
aS'87.2851383333'
p1024
aS'16:38:59'
p1025
aI5
aI36
aI10
aI6
aa(lp1026
S'23.5500566667'
p1027
aS'87.2851383333'
p1028
aS'05:35:53'
p1029
aI558
aI37
aI5
aI6
aa(lp1030
S'23.5500516667'
p1031
aS'87.2851383333'
p1032
aS'08:55:38'
p1033
aI23
aI38
aI10
aI6
aa(lp1034
S'23.5498533333'
p1035
aS'87.28496'
p1036
aS'14:29:33'
p1037
aI3
aI39
aI9
aI6
aa(lp1038
S'23.5500433333'
p1039
aS'87.2851066667'
p1040
aS'17:22:38'
p1041
aI1
aI40
aI9
aI6
aa(lp1042
S'23.549995'
p1043
aS'87.2851233333'
p1044
aS'08:12:13'
p1045
aI10
aI41
aI6
aI6
aatp1046
a(I24
(lp1047
(lp1048
S'23.5482366667'
p1049
aS'87.2837066667'
p1050
aS'16:36:47'
p1051
aI11
aI2
aI12
aI24
aa(lp1052
S'23.54825'
p1053
aS'87.2836416667'
p1054
aS'08:52:53'
p1055
aI117
aI3
aI11
aI24
aa(lp1056
S'23.5482333333'
p1057
aS'87.283675'
p1058
aS'14:29:33'
p1059
aI5
aI4
aI11
aI24
aa(lp1060
S'23.5482366667'
p1061
aS'87.283675'
p1062
aS'17:18:42'
p1063
aI7
aI5
aI5
aI24
aa(lp1064
S'23.5482216667'
p1065
aS'87.28361'
p1066
aS'10:46:41'
p1067
aI8
aI6
aI10
aI24
aa(lp1068
S'23.5481716667'
p1069
aS'87.283625'
p1070
aS'13:44:43'
p1071
aI14
aI7
aI8
aI24
aa(lp1072
S'23.5482'
p1073
aS'87.2836583333'
p1074
aS'17:03:02'
p1075
aI8
aI8
aI6
aI24
aa(lp1076
S'23.5481966667'
p1077
aS'87.2835933333'
p1078
aS'12:46:07'
p1079
aI2
aI9
aI9
aI24
aa(lp1080
S'23.5481633333'
p1081
aS'87.28369'
p1082
aS'19:04:15'
p1083
aI6
aI10
aI10
aI24
aa(lp1084
S'23.5482'
p1085
aS'87.2836583333'
p1086
aS'12:56:43'
p1087
aI7
aI12
aI6
aI24
aa(lp1088
S'23.5482616667'
p1089
aS'87.28369'
p1090
aS'16:26:16'
p1091
aI72
aI13
aI11
aI24
aa(lp1092
S'23.548185'
p1093
aS'87.2836583333'
p1094
aS'10:09:20'
p1095
aI6
aI14
aI8
aI24
aa(lp1096
S'23.5482416667'
p1097
aS'87.2836583333'
p1098
aS'10:10:25'
p1099
aI12
aI15
aI9
aI24
aa(lp1100
S'23.5482583333'
p1101
aS'87.28369'
p1102
aS'13:31:47'
p1103
aI41
aI16
aI8
aI24
aa(lp1104
S'23.5482'
p1105
aS'87.2835933333'
p1106
aS'05:38:02'
p1107
aI9
aI18
aI6
aI24
aa(lp1108
S'23.5482166667'
p1109
aS'87.283625'
p1110
aS'08:56:16'
p1111
aI4
aI19
aI8
aI24
aa(lp1112
S'23.5482366667'
p1113
aS'87.28369'
p1114
aS'17:24:30'
p1115
aI34
aI21
aI6
aI24
aa(lp1116
S'23.5482816667'
p1117
aS'87.283675'
p1118
aS'11:00:41'
p1119
aI13
aI23
aI8
aI24
aa(lp1120
S'23.54827'
p1121
aS'87.2837233333'
p1122
aS'13:49:11'
p1123
aI8
aI24
aI6
aI24
aa(lp1124
S'23.54825'
p1125
aS'87.2837066667'
p1126
aS'17:05:42'
p1127
aI5
aI25
aI7
aI24
aa(lp1128
S'23.5482583333'
p1129
aS'87.2836583333'
p1130
aS'18:23:23'
p1131
aI33
aI26
aI6
aI24
aa(lp1132
S'23.548185'
p1133
aS'87.2837233333'
p1134
aS'07:29:23'
p1135
aI8
aI27
aI11
aI24
aa(lp1136
S'23.5481066667'
p1137
aS'87.2836583333'
p1138
aS'12:07:17'
p1139
aI2
aI28
aI9
aI24
aa(lp1140
S'23.5482083333'
p1141
aS'87.2836583333'
p1142
aS'14:54:35'
p1143
aI10
aI29
aI5
aI24
aa(lp1144
S'23.5482'
p1145
aS'87.2836416667'
p1146
aS'18:25:13'
p1147
aI18
aI30
aI8
aI24
aa(lp1148
S'23.5482533333'
p1149
aS'87.28369'
p1150
aS'08:25:32'
p1151
aI11
aI31
aI5
aI24
aa(lp1152
S'23.5482283333'
p1153
aS'87.2837066667'
p1154
aS'11:40:07'
p1155
aI5
aI32
aI6
aI24
aa(lp1156
S'23.5482416667'
p1157
aS'87.283675'
p1158
aS'15:08:27'
p1159
aI9
aI33
aI6
aI24
aa(lp1160
S'23.5482083333'
p1161
aS'87.2836583333'
p1162
aS'10:09:43'
p1163
aI31
aI34
aI10
aI24
aa(lp1164
S'23.5482983333'
p1165
aS'87.28369'
p1166
aS'13:29:11'
p1167
aI19
aI35
aI6
aI24
aa(lp1168
S'23.5481433333'
p1169
aS'87.283675'
p1170
aS'16:39:36'
p1171
aI8
aI36
aI11
aI24
aa(lp1172
S'23.5482083333'
p1173
aS'87.283675'
p1174
aS'08:57:17'
p1175
aI20
aI38
aI11
aI24
aa(lp1176
S'23.54818'
p1177
aS'87.2836416667'
p1178
aS'17:23:19'
p1179
aI1315
aI40
aI10
aI24
aa(lp1180
S'23.548135'
p1181
aS'87.2836583333'
p1182
aS'08:12:59'
p1183
aI10
aI41
aI7
aI24
aa(lp1184
S'23.5482133333'
p1185
aS'87.2837066667'
p1186
aS'11:53:45'
p1187
aI18
aI42
aI8
aI24
aa(lp1188
S'23.548205'
p1189
aS'87.2836583333'
p1190
aS'15:34:27'
p1191
aI9
aI43
aI5
aI24
aatp1192
a(I7
(lp1193
(lp1194
S'23.547065'
p1195
aS'87.28273'
p1196
aS'13:30:02'
p1197
aI8
aI1
aI7
aI7
aa(lp1198
S'23.5470816667'
p1199
aS'87.282795'
p1200
aS'16:37:27'
p1201
aI6
aI2
aI13
aI7
aa(lp1202
S'23.5470933333'
p1203
aS'87.2827133333'
p1204
aS'08:54:49'
p1205
aI5
aI3
aI12
aI7
aa(lp1206
S'23.5470616667'
p1207
aS'87.28273'
p1208
aS'17:19:20'
p1209
aI5
aI5
aI6
aI7
aa(lp1210
S'23.5470616667'
p1211
aS'87.2826983333'
p1212
aS'10:47:13'
p1213
aI2
aI6
aI11
aI7
aa(lp1214
S'23.5470416667'
p1215
aS'87.2827133333'
p1216
aS'13:45:23'
p1217
aI2
aI7
aI9
aI7
aa(lp1218
S'23.5470083333'
p1219
aS'87.282665'
p1220
aS'12:46:38'
p1221
aI15
aI9
aI10
aI7
aa(lp1222
S'23.547065'
p1223
aS'87.2827633333'
p1224
aS'19:04:45'
p1225
aI1
aI10
aI11
aI7
aa(lp1226
S'23.547005'
p1227
aS'87.2826983333'
p1228
aS'10:10:15'
p1229
aI6
aI14
aI10
aI7
aa(lp1230
S'23.5470783333'
p1231
aS'87.28273'
p1232
aS'05:38:54'
p1233
aI4
aI18
aI7
aI7
aa(lp1234
S'23.5470616667'
p1235
aS'87.2826983333'
p1236
aS'08:56:47'
p1237
aI5
aI19
aI9
aI7
aa(lp1238
S'23.547085'
p1239
aS'87.2827466667'
p1240
aS'17:25:39'
p1241
aI7
aI21
aI7
aI7
aa(lp1242
S'23.54709'
p1243
aS'87.2827133333'
p1244
aS'11:01:21'
p1245
aI2
aI23
aI9
aI7
aa(lp1246
S'23.54694'
p1247
aS'87.2826'
p1248
aS'18:24:36'
p1249
aI5
aI26
aI7
aI7
aa(lp1250
S'23.5470416667'
p1251
aS'87.2827466667'
p1252
aS'08:26:19'
p1253
aI4
aI31
aI6
aI7
aa(lp1254
S'23.54711'
p1255
aS'87.2827633333'
p1256
aS'15:09:03'
p1257
aI7
aI33
aI7
aI7
aa(lp1258
S'23.54707'
p1259
aS'87.28273'
p1260
aS'10:10:41'
p1261
aI6
aI34
aI11
aI7
aa(lp1262
S'23.5469966667'
p1263
aS'87.2827466667'
p1264
aS'16:40:08'
p1265
aI7
aI36
aI12
aI7
aa(lp1266
S'23.5470416667'
p1267
aS'87.28273'
p1268
aS'05:37:31'
p1269
aI208
aI37
aI6
aI7
aa(lp1270
S'23.5470083333'
p1271
aS'87.2826983333'
p1272
aS'15:35:08'
p1273
aI2
aI43
aI6
aI7
aatp1274
a(I46
(lp1275
(lp1276
S'23.546695'
p1277
aS'87.2824366667'
p1278
aS'17:19:37'
p1279
aI1
aI5
aI7
aI46
aa(lp1280
S'23.5467516667'
p1281
aS'87.2824866667'
p1282
aS'13:49:50'
p1283
aI4
aI24
aI7
aI46
aa(lp1284
S'23.546715'
p1285
aS'87.2824533333'
p1286
aS'07:30:10'
p1287
aI25
aI27
aI12
aI46
aa(lp1288
S'23.5466633333'
p1289
aS'87.2824216667'
p1290
aS'14:55:25'
p1291
aI4
aI29
aI6
aI46
aa(lp1292
S'23.5466266667'
p1293
aS'87.2824366667'
p1294
aS'08:13:43'
p1295
aI1
aI41
aI8
aI46
aatp1296
a(I34
(lp1297
(lp1298
S'23.545345'
p1299
aS'87.2812983333'
p1300
aS'08:55:33'
p1301
aI7
aI3
aI13
aI34
aa(lp1302
S'23.545315'
p1303
aS'87.2812816667'
p1304
aS'10:47:49'
p1305
aI1
aI6
aI12
aI34
aa(lp1306
S'23.5453283333'
p1307
aS'87.28133000000001'
p1308
aS'19:05:23'
p1309
aI8
aI10
aI12
aI34
aa(lp1310
S'23.5453233333'
p1311
aS'87.281315'
p1312
aS'12:57:32'
p1313
aI2
aI12
aI7
aI34
aa(lp1314
S'23.54534'
p1315
aS'87.2812983333'
p1316
aS'16:28:11'
p1317
aI1
aI13
aI12
aI34
aa(lp1318
S'23.5453366667'
p1319
aS'87.281265'
p1320
aS'10:11:34'
p1321
aI1
aI15
aI10
aI34
aa(lp1322
S'23.54536'
p1323
aS'87.2813466667'
p1324
aS'13:33:47'
p1325
aI4
aI16
aI9
aI34
aa(lp1326
S'23.5453083333'
p1327
aS'87.281265'
p1328
aS'08:57:31'
p1329
aI14
aI19
aI10
aI34
aa(lp1330
S'23.5453816667'
p1331
aS'87.28133'
p1332
aS'17:26:35'
p1333
aI18
aI21
aI8
aI34
aa(lp1334
S'23.5453883333'
p1335
aS'87.2812816667'
p1336
aS'11:01:58'
p1337
aI16
aI23
aI10
aI34
aa(lp1338
S'23.5454216667'
p1339
aS'87.2813633333'
p1340
aS'13:50:20'
p1341
aI4
aI24
aI8
aI34
aa(lp1342
S'23.5453566667'
p1343
aS'87.28133'
p1344
aS'14:56:03'
p1345
aI252
aI29
aI7
aI34
aa(lp1346
S'23.5453516667'
p1347
aS'87.2813466667'
p1348
aS'08:27:01'
p1349
aI2
aI31
aI7
aI34
aa(lp1350
S'23.545315'
p1351
aS'87.2812816667'
p1352
aS'10:11:26'
p1353
aI2
aI34
aI12
aI34
aa(lp1354
S'23.5453683333'
p1355
aS'87.2813466667'
p1356
aS'13:31:18'
p1357
aI12
aI35
aI7
aI34
aa(lp1358
S'23.545255'
p1359
aS'87.281315'
p1360
aS'16:40:49'
p1361
aI2
aI36
aI13
aI34
aa(lp1362
S'23.5452666667'
p1363
aS'87.2812983333'
p1364
aS'08:58:59'
p1365
aI4
aI38
aI12
aI34
aa(lp1366
S'23.5453966667'
p1367
aS'87.28133'
p1368
aS'14:31:01'
p1369
aI11
aI39
aI10
aI34
aatp1370
a(I72
(lp1371
(lp1372
S'23.5450383333'
p1373
aS'87.2816566667'
p1374
aS'13:34:12'
p1375
aI1
aI16
aI10
aI72
aa(lp1376
S'23.5449866667'
p1377
aS'87.2816566667'
p1378
aS'14:56:56'
p1379
aI18
aI29
aI8
aI72
aa(lp1380
S'23.54506'
p1381
aS'87.2816716667'
p1382
aS'13:31:56'
p1383
aI1
aI35
aI8
aI72
aa(lp1384
S'23.5450183333'
p1385
aS'87.2816883333'
p1386
aS'05:38:26'
p1387
aI1
aI37
aI7
aI72
aa(lp1388
S'23.544995'
p1389
aS'87.281705'
p1390
aS'08:59:18'
p1391
aI2
aI38
aI13
aI72
aa(lp1392
S'23.544965'
p1393
aS'87.2816716667'
p1394
aS'08:14:36'
p1395
aI1
aI41
aI9
aI72
aatp1396
a(I25
(lp1397
(lp1398
S'23.5445016667'
p1399
aS'87.28286'
p1400
aS'16:38:41'
p1401
aI2
aI2
aI14
aI25
aa(lp1402
S'23.5444983333'
p1403
aS'87.2828933333'
p1404
aS'08:56:22'
p1405
aI9
aI3
aI14
aI25
aa(lp1406
S'23.54451'
p1407
aS'87.282845'
p1408
aS'16:28:57'
p1409
aI4
aI13
aI13
aI25
aa(lp1410
S'23.54453'
p1411
aS'87.2828283333'
p1412
aS'10:12:08'
p1413
aI4
aI15
aI11
aI25
aa(lp1414
S'23.54447'
p1415
aS'87.2829416667'
p1416
aS'08:58:20'
p1417
aI3
aI19
aI11
aI25
aa(lp1418
S'23.544535'
p1419
aS'87.282845'
p1420
aS'17:27:38'
p1421
aI4
aI21
aI9
aI25
aa(lp1422
S'23.5445266667'
p1423
aS'87.2828933333'
p1424
aS'11:02:53'
p1425
aI5
aI23
aI11
aI25
aa(lp1426
S'23.5445216667'
p1427
aS'87.2828283333'
p1428
aS'18:27:02'
p1429
aI101
aI30
aI9
aI25
aa(lp1430
S'23.5444783333'
p1431
aS'87.2828766667'
p1432
aS'08:59:53'
p1433
aI8
aI38
aI14
aI25
aa(lp1434
S'23.5445133333'
p1435
aS'87.2828766667'
p1436
aS'14:31:53'
p1437
aI5
aI39
aI11
aI25
aatp1438
a(I35
(lp1439
(lp1440
S'23.5428533333'
p1441
aS'87.2863916667'
p1442
aS'08:57:39'
p1443
aI2
aI3
aI15
aI35
aa(lp1444
S'23.5427883333'
p1445
aS'87.2865233333'
p1446
aS'17:21:54'
p1447
aI101
aI5
aI8
aI35
aa(lp1448
S'23.5427933333'
p1449
aS'87.2863766667'
p1450
aS'12:49:07'
p1451
aI3
aI9
aI11
aI35
aa(lp1452
S'23.5428383333'
p1453
aS'87.286425'
p1454
aS'10:13:16'
p1455
aI9
aI15
aI12
aI35
aa(lp1456
S'23.542765'
p1457
aS'87.2865716667'
p1458
aS'17:08:02'
p1459
aI1
aI25
aI8
aI35
aa(lp1460
S'23.5428016667'
p1461
aS'87.2862466667'
p1462
aS'12:09:41'
p1463
aI9
aI28
aI10
aI35
aa(lp1464
S'23.542825'
p1465
aS'87.2864083333'
p1466
aS'18:28:20'
p1467
aI5
aI30
aI10
aI35
aa(lp1468
S'23.5427766667'
p1469
aS'87.2865066667'
p1470
aS'08:28:45'
p1471
aI4
aI31
aI8
aI35
aa(lp1472
S'23.54285'
p1473
aS'87.2864083333'
p1474
aS'11:42:51'
p1475
aI6
aI32
aI7
aI35
aa(lp1476
S'23.54289'
p1477
aS'87.2863433333'
p1478
aS'10:12:53'
p1479
aI3
aI34
aI13
aI35
aa(lp1480
S'23.5427433333'
p1481
aS'87.2865883333'
p1482
aS'14:32:51'
p1483
aI2
aI39
aI12
aI35
aatp1484
a(I57
(lp1485
(lp1486
S'23.543705'
p1487
aS'87.284585'
p1488
aS'17:05:16'
p1489
aI5
aI8
aI7
aI57
aa(lp1490
S'23.5437783333'
p1491
aS'87.28440666670001'
p1492
aS'19:06:35'
p1493
aI2
aI10
aI13
aI57
aa(lp1494
S'23.5437416667'
p1495
aS'87.2844233333'
p1496
aS'12:58:42'
p1497
aI1
aI12
aI8
aI57
aa(lp1498
S'23.54375'
p1499
aS'87.284455'
p1500
aS'08:58:55'
p1501
aI3
aI19
aI12
aI57
aa(lp1502
S'23.5438266667'
p1503
aS'87.28439'
p1504
aS'17:28:11'
p1505
aI5
aI21
aI10
aI57
aa(lp1506
S'23.54377'
p1507
aS'87.2844883333'
p1508
aS'11:03:28'
p1509
aI82
aI23
aI12
aI57
aa(lp1510
S'23.543785'
p1511
aS'87.2844066667'
p1512
aS'16:42:25'
p1513
aI9
aI36
aI15
aI57
aa(lp1514
S'23.5436683333'
p1515
aS'87.2846183333'
p1516
aS'09:00:46'
p1517
aI6
aI38
aI15
aI57
aa(lp1518
S'23.5436916667'
p1519
aS'87.2844716667'
p1520
aS'08:15:26'
p1521
aI4
aI41
aI10
aI57
aatp1522
a(I36
(lp1523
(lp1524
S'23.5430933333'
p1525
aS'87.2904933333'
p1526
aS'08:59:33'
p1527
aI5
aI3
aI16
aI36
aa(lp1528
S'23.5430283333'
p1529
aS'87.2904783333'
p1530
aS'14:33:12'
p1531
aI3
aI4
aI12
aI36
aa(lp1532
S'23.54298'
p1533
aS'87.2904933333'
p1534
aS'13:49:17'
p1535
aI5
aI7
aI11
aI36
aa(lp1536
S'23.5428866667'
p1537
aS'87.2905266667'
p1538
aS'17:08:04'
p1539
aI182
aI8
aI8
aI36
aa(lp1540
S'23.543115'
p1541
aS'87.2903633333'
p1542
aS'09:07:05'
p1543
aI9
aI11
aI5
aI36
aa(lp1544
S'23.5431183333'
p1545
aS'87.2903466667'
p1546
aS'13:01:11'
p1547
aI5
aI12
aI10
aI36
aa(lp1548
S'23.543045'
p1549
aS'87.290445'
p1550
aS'10:13:36'
p1551
aI2
aI14
aI11
aI36
aa(lp1552
S'23.5429633333'
p1553
aS'87.2904616667'
p1554
aS'16:43:57'
p1555
aI1
aI17
aI10
aI36
aa(lp1556
S'23.5429883333'
p1557
aS'87.2905433333'
p1558
aS'05:42:39'
p1559
aI1
aI18
aI8
aI36
aa(lp1560
S'23.5431016667'
p1561
aS'87.2904933333'
p1562
aS'17:30:38'
p1563
aI11
aI21
aI11
aI36
aa(lp1564
S'23.54287'
p1565
aS'87.2904933333'
p1566
aS'17:09:42'
p1567
aI6
aI25
aI9
aI36
aa(lp1568
S'23.5430416667'
p1569
aS'87.290445'
p1570
aS'12:11:33'
p1571
aI2
aI28
aI12
aI36
aa(lp1572
S'23.5430616667'
p1573
aS'87.2904783333'
p1574
aS'18:30:13'
p1575
aI9
aI30
aI12
aI36
aa(lp1576
S'23.54302'
p1577
aS'87.2905433333'
p1578
aS'09:03:15'
p1579
aI2
aI38
aI17
aI36
aa(lp1580
S'23.5430533333'
p1581
aS'87.2904783333'
p1582
aS'14:34:42'
p1583
aI7
aI39
aI14
aI36
aa(lp1584
S'23.5430933333'
p1585
aS'87.2904933333'
p1586
aS'11:57:44'
p1587
aI10
aI42
aI9
aI36
aatp1588
a(I26
(lp1589
(lp1590
S'23.54169'
p1591
aS'87.289925'
p1592
aS'16:41:53'
p1593
aI7
aI2
aI15
aI26
aa(lp1594
S'23.5416533333'
p1595
aS'87.2900216667'
p1596
aS'09:00:16'
p1597
aI3
aI3
aI17
aI26
aa(lp1598
S'23.5417016667'
p1599
aS'87.2899083333'
p1600
aS'10:51:12'
p1601
aI7
aI6
aI13
aI26
aa(lp1602
S'23.5417633333'
p1603
aS'87.2899083333'
p1604
aS'17:09:06'
p1605
aI6
aI8
aI9
aI26
aa(lp1606
S'23.541695'
p1607
aS'87.28995666670001'
p1608
aS'19:09:27'
p1609
aI1102
aI10
aI15
aI26
aa(lp1610
S'23.541645'
p1611
aS'87.289925'
p1612
aS'13:02:12'
p1613
aI53
aI12
aI11
aI26
aa(lp1614
S'23.541805'
p1615
aS'87.2899083333'
p1616
aS'16:32:00'
p1617
aI42
aI13
aI15
aI26
aa(lp1618
S'23.54171'
p1619
aS'87.28994'
p1620
aS'10:15:16'
p1621
aI9
aI15
aI13
aI26
aa(lp1622
S'23.541686666700002'
p1623
aS'87.289925'
p1624
aS'05:43:18'
p1625
aI34
aI18
aI9
aI26
aa(lp1626
S'23.5417316667'
p1627
aS'87.28994'
p1628
aS'14:33:02'
p1629
aI7
aI20
aI6
aI26
aa(lp1630
S'23.5417066667'
p1631
aS'87.2899083333'
p1632
aS'17:31:21'
p1633
aI4
aI21
aI12
aI26
aa(lp1634
S'23.5416983333'
p1635
aS'87.2899566667'
p1636
aS'11:06:20'
p1637
aI9
aI23
aI14
aI26
aa(lp1638
S'23.5417316667'
p1639
aS'87.2898916667'
p1640
aS'13:54:03'
p1641
aI3
aI24
aI9
aI26
aa(lp1642
S'23.541605'
p1643
aS'87.2899083333'
p1644
aS'07:33:42'
p1645
aI8
aI27
aI13
aI26
aa(lp1646
S'23.5415933333'
p1647
aS'87.28999'
p1648
aS'12:13:09'
p1649
aI75
aI28
aI13
aI26
aa(lp1650
S'23.5416866667'
p1651
aS'87.289875'
p1652
aS'15:00:23'
p1653
aI7
aI29
aI9
aI26
aa(lp1654
S'23.5417016667'
p1655
aS'87.289925'
p1656
aS'08:31:07'
p1657
aI15
aI31
aI9
aI26
aa(lp1658
S'23.5416783333'
p1659
aS'87.290005'
p1660
aS'11:45:18'
p1661
aI76
aI32
aI8
aI26
aa(lp1662
S'23.54171'
p1663
aS'87.289925'
p1664
aS'10:15:03'
p1665
aI16
aI34
aI14
aI26
aa(lp1666
S'23.54167'
p1667
aS'87.2899733333'
p1668
aS'16:45:10'
p1669
aI2
aI36
aI17
aI26
aa(lp1670
S'23.54167'
p1671
aS'87.289925'
p1672
aS'05:41:26'
p1673
aI18
aI37
aI8
aI26
aa(lp1674
S'23.5416866667'
p1675
aS'87.28994'
p1676
aS'09:03:55'
p1677
aI5
aI38
aI18
aI26
aa(lp1678
S'23.54169'
p1679
aS'87.2898916667'
p1680
aS'17:31:02'
p1681
aI23
aI40
aI12
aI26
aa(lp1682
S'23.5416616667'
p1683
aS'87.28994'
p1684
aS'08:18:08'
p1685
aI42
aI41
aI11
aI26
aa(lp1686
S'23.5416983333'
p1687
aS'87.290005'
p1688
aS'11:58:41'
p1689
aI40
aI42
aI10
aI26
aatp1690
a(I27
(lp1691
(lp1692
S'23.539285'
p1693
aS'87.2930816667'
p1694
aS'16:43:02'
p1695
aI10
aI2
aI16
aI27
aa(lp1696
S'23.539375'
p1697
aS'87.2930983333'
p1698
aS'09:01:18'
p1699
aI12
aI3
aI18
aI27
aa(lp1700
S'23.5392766667'
p1701
aS'87.2930816667'
p1702
aS'14:35:00'
p1703
aI9
aI4
aI13
aI27
aa(lp1704
S'23.5395416667'
p1705
aS'87.293'
p1706
aS'10:52:17'
p1707
aI19
aI6
aI14
aI27
aa(lp1708
S'23.5393916667'
p1709
aS'87.2930816667'
p1710
aS'13:51:02'
p1711
aI17
aI7
aI12
aI27
aa(lp1712
S'23.5393133333'
p1713
aS'87.293065'
p1714
aS'12:55:18'
p1715
aI6
aI9
aI13
aI27
aa(lp1716
S'23.539338333299998'
p1717
aS'87.293115'
p1718
aS'19:12:04'
p1719
aI14
aI10
aI16
aI27
aa(lp1720
S'23.5393266667'
p1721
aS'87.293115'
p1722
aS'09:08:34'
p1723
aI1
aI11
aI6
aI27
aa(lp1724
S'23.5393833333'
p1725
aS'87.2930983333'
p1726
aS'16:33:46'
p1727
aI7
aI13
aI16
aI27
aa(lp1728
S'23.5393866667'
p1729
aS'87.293065'
p1730
aS'10:15:11'
p1731
aI5
aI14
aI12
aI27
aa(lp1732
S'23.5393133333'
p1733
aS'87.29313'
p1734
aS'10:16:32'
p1735
aI9
aI15
aI14
aI27
aa(lp1736
S'23.5392333333'
p1737
aS'87.292985'
p1738
aS'13:39:44'
p1739
aI3
aI16
aI11
aI27
aa(lp1740
S'23.5391833333'
p1741
aS'87.2930166667'
p1742
aS'16:45:19'
p1743
aI3
aI17
aI11
aI27
aa(lp1744
S'23.5392933333'
p1745
aS'87.2931633333'
p1746
aS'09:02:16'
p1747
aI7
aI19
aI13
aI27
aa(lp1748
S'23.5393583333'
p1749
aS'87.293065'
p1750
aS'14:34:26'
p1751
aI7
aI20
aI7
aI27
aa(lp1752
S'23.5393866667'
p1753
aS'87.2930816667'
p1754
aS'17:32:17'
p1755
aI2
aI21
aI13
aI27
aa(lp1756
S'23.5393866667'
p1757
aS'87.293115'
p1758
aS'11:07:45'
p1759
aI30
aI23
aI16
aI27
aa(lp1760
S'23.5392'
p1761
aS'87.2930983333'
p1762
aS'17:11:28'
p1763
aI4
aI25
aI10
aI27
aa(lp1764
S'23.5392366667'
p1765
aS'87.293115'
p1766
aS'18:30:41'
p1767
aI13
aI26
aI8
aI27
aa(lp1768
S'23.5391833333'
p1769
aS'87.29313'
p1770
aS'15:01:34'
p1771
aI14
aI29
aI10
aI27
aa(lp1772
S'23.5391633333'
p1773
aS'87.29318'
p1774
aS'18:32:44'
p1775
aI6
aI30
aI14
aI27
aa(lp1776
S'23.5392116667'
p1777
aS'87.293115'
p1778
aS'08:32:30'
p1779
aI2
aI31
aI10
aI27
aa(lp1780
S'23.5393416667'
p1781
aS'87.2930816667'
p1782
aS'10:16:26'
p1783
aI5
aI34
aI15
aI27
aa(lp1784
S'23.5395216667'
p1785
aS'87.2930983333'
p1786
aS'13:37:31'
p1787
aI3
aI35
aI9
aI27
aa(lp1788
S'23.539305'
p1789
aS'87.2931466667'
p1790
aS'16:46:38'
p1791
aI19
aI36
aI19
aI27
aa(lp1792
S'23.5392616667'
p1793
aS'87.2931633333'
p1794
aS'09:04:53'
p1795
aI4
aI38
aI19
aI27
aa(lp1796
S'23.5394366667'
p1797
aS'87.293115'
p1798
aS'14:36:45'
p1799
aI13
aI39
aI15
aI27
aa(lp1800
S'23.5393583333'
p1801
aS'87.2930816667'
p1802
aS'17:33:01'
p1803
aI553
aI40
aI14
aI27
aa(lp1804
S'23.539265'
p1805
aS'87.293065'
p1806
aS'12:00:32'
p1807
aI6
aI42
aI11
aI27
aatp1808
a(I28
(lp1809
(lp1810
S'23.53909'
p1811
aS'87.2943516667'
p1812
aS'16:43:47'
p1813
aI2
aI2
aI17
aI28
aa(lp1814
S'23.5389966667'
p1815
aS'87.29453'
p1816
aS'14:35:51'
p1817
aI4
aI4
aI14
aI28
aa(lp1818
S'23.5390333333'
p1819
aS'87.2945133333'
p1820
aS'10:53:24'
p1821
aI6
aI6
aI15
aI28
aa(lp1822
S'23.539'
p1823
aS'87.2945466667'
p1824
aS'12:56:10'
p1825
aI4
aI9
aI14
aI28
aa(lp1826
S'23.539095'
p1827
aS'87.2943683333'
p1828
aS'19:12:52'
p1829
aI1
aI10
aI17
aI28
aa(lp1830
S'23.5389916667'
p1831
aS'87.2945633333'
p1832
aS'10:16:01'
p1833
aI174
aI14
aI13
aI28
aa(lp1834
S'23.5390866667'
p1835
aS'87.2945133333'
p1836
aS'10:17:18'
p1837
aI3
aI15
aI15
aI28
aa(lp1838
S'23.53907'
p1839
aS'87.2945133333'
p1840
aS'13:55:43'
p1841
aI4
aI24
aI10
aI28
aa(lp1842
S'23.53898'
p1843
aS'87.29458'
p1844
aS'07:35:16'
p1845
aI21
aI27
aI14
aI28
aa(lp1846
S'23.5389716667'
p1847
aS'87.29453'
p1848
aS'12:15:27'
p1849
aI6
aI28
aI14
aI28
aa(lp1850
S'23.539065'
p1851
aS'87.2944166667'
p1852
aS'11:48:24'
p1853
aI1
aI32
aI9
aI28
aa(lp1854
S'23.5390166667'
p1855
aS'87.2945133333'
p1856
aS'10:17:14'
p1857
aI7
aI34
aI16
aI28
aa(lp1858
S'23.5390366667'
p1859
aS'87.2945466667'
p1860
aS'16:47:32'
p1861
aI2
aI36
aI20
aI28
aa(lp1862
S'23.539101666700002'
p1863
aS'87.2943183333'
p1864
aS'05:43:13'
p1865
aI2
aI37
aI9
aI28
aa(lp1866
S'23.53905'
p1867
aS'87.29453'
p1868
aS'17:34:38'
p1869
aI9
aI40
aI15
aI28
aa(lp1870
S'23.5390583333'
p1871
aS'87.2945633333'
p1872
aS'12:01:24'
p1873
aI3
aI42
aI12
aI28
aatp1874
a(I8
(lp1875
(lp1876
S'23.537535'
p1877
aS'87.2967766667'
p1878
aS'13:37:37'
p1879
aI22
aI1
aI8
aI8
aa(lp1880
S'23.5375683333'
p1881
aS'87.2968083333'
p1882
aS'16:45:23'
p1883
aI28
aI2
aI18
aI8
aa(lp1884
S'23.5375566667'
p1885
aS'87.2967766667'
p1886
aS'09:03:08'
p1887
aI25
aI3
aI19
aI8
aa(lp1888
S'23.5375066667'
p1889
aS'87.29676'
p1890
aS'14:37:04'
p1891
aI19
aI4
aI15
aI8
aa(lp1892
S'23.537565'
p1893
aS'87.2967933333'
p1894
aS'17:27:25'
p1895
aI33
aI5
aI11
aI8
aa(lp1896
S'23.5375283333'
p1897
aS'87.2967283333'
p1898
aS'10:54:47'
p1899
aI33
aI6
aI16
aI8
aa(lp1900
S'23.5375233333'
p1901
aS'87.2967766667'
p1902
aS'13:53:09'
p1903
aI52
aI7
aI13
aI8
aa(lp1904
S'23.5375966667'
p1905
aS'87.296825'
p1906
aS'17:12:27'
p1907
aI22
aI8
aI11
aI8
aa(lp1908
S'23.5375283333'
p1909
aS'87.2967766667'
p1910
aS'12:57:25'
p1911
aI26
aI9
aI15
aI8
aa(lp1912
S'23.53758'
p1913
aS'87.296825'
p1914
aS'19:14:12'
p1915
aI30
aI10
aI18
aI8
aa(lp1916
S'23.5374833333'
p1917
aS'87.2967283333'
p1918
aS'09:10:01'
p1919
aI6
aI11
aI7
aI8
aa(lp1920
S'23.53758'
p1921
aS'87.2968416667'
p1922
aS'13:06:48'
p1923
aI37
aI12
aI12
aI8
aa(lp1924
S'23.5376016667'
p1925
aS'87.2967766667'
p1926
aS'16:35:30'
p1927
aI24
aI13
aI17
aI8
aa(lp1928
S'23.5375033333'
p1929
aS'87.2967433333'
p1930
aS'10:17:35'
p1931
aI23
aI14
aI14
aI8
aa(lp1932
S'23.53754'
p1933
aS'87.2967433333'
p1934
aS'10:18:32'
p1935
aI24
aI15
aI16
aI8
aa(lp1936
S'23.5375516667'
p1937
aS'87.2967283333'
p1938
aS'13:41:31'
p1939
aI13
aI16
aI12
aI8
aa(lp1940
S'23.5375116667'
p1941
aS'87.2967766667'
p1942
aS'16:47:13'
p1943
aI21
aI17
aI12
aI8
aa(lp1944
S'23.5375'
p1945
aS'87.29676'
p1946
aS'09:03:47'
p1947
aI14
aI19
aI14
aI8
aa(lp1948
S'23.5376533333'
p1949
aS'87.29676'
p1950
aS'14:36:28'
p1951
aI20
aI20
aI8
aI8
aa(lp1952
S'23.53758'
p1953
aS'87.2968083333'
p1954
aS'17:33:47'
p1955
aI51
aI21
aI14
aI8
aa(lp1956
S'23.5375933333'
p1957
aS'87.2967283333'
p1958
aS'11:09:53'
p1959
aI44
aI23
aI17
aI8
aa(lp1960
S'23.5375716667'
p1961
aS'87.2967283333'
p1962
aS'13:56:57'
p1963
aI29
aI24
aI11
aI8
aa(lp1964
S'23.537605'
p1965
aS'87.2968083333'
p1966
aS'17:13:26'
p1967
aI38
aI25
aI11
aI8
aa(lp1968
S'23.537625'
p1969
aS'87.2967766667'
p1970
aS'18:32:39'
p1971
aI21
aI26
aI9
aI8
aa(lp1972
S'23.537495'
p1973
aS'87.2967766667'
p1974
aS'07:36:36'
p1975
aI9
aI27
aI15
aI8
aa(lp1976
S'23.5375433333'
p1977
aS'87.296825'
p1978
aS'12:16:35'
p1979
aI2114
aI28
aI15
aI8
aa(lp1980
S'23.5375433333'
p1981
aS'87.2967766667'
p1982
aS'15:03:31'
p1983
aI28
aI29
aI11
aI8
aa(lp1984
S'23.5375966667'
p1985
aS'87.2967766667'
p1986
aS'18:34:27'
p1987
aI43
aI30
aI15
aI8
aa(lp1988
S'23.53756'
p1989
aS'87.2968083333'
p1990
aS'08:34:50'
p1991
aI15
aI31
aI12
aI8
aa(lp1992
S'23.537475'
p1993
aS'87.2967766667'
p1994
aS'11:49:48'
p1995
aI20
aI32
aI10
aI8
aa(lp1996
S'23.5375683333'
p1997
aS'87.2967933333'
p1998
aS'15:15:12'
p1999
aI13
aI33
aI8
aI8
aa(lp2000
S'23.5375766667'
p2001
aS'87.2967933333'
p2002
aS'10:18:32'
p2003
aI36
aI34
aI17
aI8
aa(lp2004
S'23.5375716667'
p2005
aS'87.2967933333'
p2006
aS'13:39:57'
p2007
aI15
aI35
aI11
aI8
aa(lp2008
S'23.5375433333'
p2009
aS'87.296825'
p2010
aS'16:48:43'
p2011
aI47
aI36
aI21
aI8
aa(lp2012
S'23.5375433333'
p2013
aS'87.2967933333'
p2014
aS'09:06:37'
p2015
aI13
aI38
aI20
aI8
aa(lp2016
S'23.5375683333'
p2017
aS'87.29676'
p2018
aS'14:38:53'
p2019
aI30
aI39
aI16
aI8
aa(lp2020
S'23.537565'
p2021
aS'87.2967933333'
p2022
aS'17:36:02'
p2023
aI34
aI40
aI16
aI8
aa(lp2024
S'23.5375233333'
p2025
aS'87.296825'
p2026
aS'08:21:47'
p2027
aI16
aI41
aI13
aI8
aa(lp2028
S'23.53758'
p2029
aS'87.2968083333'
p2030
aS'12:02:51'
p2031
aI30
aI42
aI13
aI8
aatp2032
a(I43
(lp2033
(lp2034
S'23.5360916667'
p2035
aS'87.2958816667'
p2036
aS'14:38:17'
p2037
aI5
aI4
aI17
aI43
aa(lp2038
S'23.53599'
p2039
aS'87.2958333333'
p2040
aS'13:54:44'
p2041
aI12
aI7
aI14
aI43
aa(lp2042
S'23.5359983333'
p2043
aS'87.295865'
p2044
aS'17:13:33'
p2045
aI8
aI8
aI12
aI43
aa(lp2046
S'23.5361233333'
p2047
aS'87.29593'
p2048
aS'13:07:38'
p2049
aI11
aI12
aI13
aI43
aa(lp2050
S'23.536095'
p2051
aS'87.29593'
p2052
aS'13:42:24'
p2053
aI190
aI16
aI13
aI43
aa(lp2054
S'23.5360133333'
p2055
aS'87.2958816667'
p2056
aS'16:48:10'
p2057
aI15
aI17
aI13
aI43
aa(lp2058
S'23.536145'
p2059
aS'87.295865'
p2060
aS'14:37:45'
p2061
aI4
aI20
aI9
aI43
aa(lp2062
S'23.5361483333'
p2063
aS'87.2958483333'
p2064
aS'11:11:23'
p2065
aI7
aI23
aI18
aI43
aa(lp2066
S'23.5360466667'
p2067
aS'87.2958816667'
p2068
aS'13:41:03'
p2069
aI11
aI35
aI12
aI43
aa(lp2070
S'23.5360416667'
p2071
aS'87.295865'
p2072
aS'09:07:25'
p2073
aI7
aI38
aI21
aI43
aatp2074
a(I50
(lp2075
(lp2076
S'23.5353866667'
p2077
aS'87.2971016667'
p2078
aS'10:56:33'
p2079
aI8
aI6
aI17
aI50
aa(lp2080
S'23.535395'
p2081
aS'87.2969066667'
p2082
aS'09:11:00'
p2083
aI1
aI11
aI8
aI50
aa(lp2084
S'23.535375'
p2085
aS'87.297005'
p2086
aS'09:05:09'
p2087
aI3
aI19
aI15
aI50
aa(lp2088
S'23.5354033333'
p2089
aS'87.296955'
p2090
aS'14:38:55'
p2091
aI721
aI20
aI10
aI50
aa(lp2092
S'23.5353866667'
p2093
aS'87.2970366667'
p2094
aS'17:36:30'
p2095
aI38
aI21
aI15
aI50
aa(lp2096
S'23.5354116667'
p2097
aS'87.2969066667'
p2098
aS'11:12:16'
p2099
aI107
aI23
aI19
aI50
aa(lp2100
S'23.53546'
p2101
aS'87.2972966667'
p2102
aS'08:36:47'
p2103
aI37
aI31
aI14
aI50
aa(lp2104
S'23.5353666667'
p2105
aS'87.2971016667'
p2106
aS'16:50:43'
p2107
aI16
aI36
aI22
aI50
aa(lp2108
S'23.5354883333'
p2109
aS'87.2973133333'
p2110
aS'09:08:20'
p2111
aI76
aI38
aI22
aI50
aatp2112
a(I10
(lp2113
(lp2114
S'23.535725'
p2115
aS'87.2977533333'
p2116
aS'13:42:21'
p2117
aI302
aI1
aI10
aI10
aa(lp2118
S'23.535745'
p2119
aS'87.2978183333'
p2120
aS'16:50:23'
p2121
aI296
aI2
aI19
aI10
aa(lp2122
S'23.5357583333'
p2123
aS'87.2978183333'
p2124
aS'09:06:09'
p2125
aI109
aI3
aI20
aI10
aa(lp2126
S'23.5356766667'
p2127
aS'87.2975083333'
p2128
aS'14:41:22'
p2129
aI267
aI4
aI18
aI10
aa(lp2130
S'23.535705'
p2131
aS'87.2975416667'
p2132
aS'17:29:38'
p2133
aI296
aI5
aI12
aI10
aa(lp2134
S'23.5357616667'
p2135
aS'87.29777'
p2136
aS'11:01:58'
p2137
aI356
aI6
aI18
aI10
aa(lp2138
S'23.5357216667'
p2139
aS'87.297835'
p2140
aS'13:57:58'
p2141
aI246
aI7
aI15
aI10
aa(lp2142
S'23.5357416667'
p2143
aS'87.29772'
p2144
aS'17:16:24'
p2145
aI16524
aI8
aI13
aI10
aa(lp2146
S'23.535685'
p2147
aS'87.2975733333'
p2148
aS'12:59:47'
p2149
aI82
aI9
aI16
aI10
aa(lp2150
S'23.535745000000002'
p2151
aS'87.29772'
p2152
aS'19:19:46'
p2153
aI294
aI10
aI19
aI10
aa(lp2154
S'23.5357'
p2155
aS'87.2976716667'
p2156
aS'09:14:27'
p2157
aI400
aI11
aI9
aI10
aa(lp2158
S'23.535685'
p2159
aS'87.2975583333'
p2160
aS'13:09:01'
p2161
aI75
aI12
aI14
aI10
aa(lp2162
S'23.535745'
p2163
aS'87.29759'
p2164
aS'16:38:39'
p2165
aI312
aI13
aI18
aI10
aa(lp2166
S'23.535725'
p2167
aS'87.2976716667'
p2168
aS'10:19:54'
p2169
aI202
aI14
aI15
aI10
aa(lp2170
S'23.5357283333'
p2171
aS'87.297655'
p2172
aS'10:21:35'
p2173
aI256
aI15
aI17
aI10
aa(lp2174
S'23.53577'
p2175
aS'87.2977533333'
p2176
aS'13:45:23'
p2177
aI117
aI16
aI14
aI10
aa(lp2178
S'23.5357166667'
p2179
aS'87.29785'
p2180
aS'16:52:06'
p2181
aI329
aI17
aI14
aI10
aa(lp2182
S'23.5357533333'
p2183
aS'87.29783499999999'
p2184
aS'05:52:56'
p2185
aI380
aI18
aI11
aI10
aa(lp2186
S'23.535925'
p2187
aS'87.2976716667'
p2188
aS'09:06:04'
p2189
aI21
aI19
aI17
aI10
aa(lp2190
S'23.53575'
p2191
aS'87.2975083333'
p2192
aS'13:59:46'
p2193
aI152
aI24
aI12
aI10
aa(lp2194
S'23.5357166667'
p2195
aS'87.297525'
p2196
aS'17:16:03'
p2197
aI37
aI25
aI12
aI10
aa(lp2198
S'23.5357866667'
p2199
aS'87.297705'
p2200
aS'18:34:55'
p2201
aI303
aI26
aI10
aI10
aa(lp2202
S'23.53562'
p2203
aS'87.2975733333'
p2204
aS'07:38:05'
p2205
aI14
aI27
aI16
aI10
aa(lp2206
S'23.53568'
p2207
aS'87.2976233333'
p2208
aS'12:20:08'
p2209
aI98
aI28
aI16
aI10
aa(lp2210
S'23.5356483333'
p2211
aS'87.2975583333'
p2212
aS'15:06:29'
p2213
aI173
aI29
aI12
aI10
aa(lp2214
S'23.5357416667'
p2215
aS'87.2976883333'
p2216
aS'18:39:20'
p2217
aI281
aI30
aI16
aI10
aa(lp2218
S'23.5356933333'
p2219
aS'87.2978666667'
p2220
aS'11:52:39'
p2221
aI478
aI32
aI11
aI10
aa(lp2222
S'23.53575'
p2223
aS'87.297785'
p2224
aS'15:19:42'
p2225
aI173
aI33
aI10
aI10
aa(lp2226
S'23.5357583333'
p2227
aS'87.297835'
p2228
aS'10:22:28'
p2229
aI183
aI34
aI18
aI10
aa(lp2230
S'23.5358016667'
p2231
aS'87.2978016667'
p2232
aS'13:43:32'
p2233
aI191
aI35
aI13
aI10
aa(lp2234
S'23.5357216667'
p2235
aS'87.297705'
p2236
aS'16:53:16'
p2237
aI317
aI36
aI23
aI10
aa(lp2238
S'23.5357533333'
p2239
aS'87.2977533333'
p2240
aS'05:48:58'
p2241
aI291
aI37
aI10
aI10
aa(lp2242
S'23.5357'
p2243
aS'87.2975416667'
p2244
aS'14:42:53'
p2245
aI223
aI39
aI17
aI10
aa(lp2246
S'23.5356716667'
p2247
aS'87.2975083333'
p2248
aS'17:37:48'
p2249
aI41
aI40
aI17
aI10
aa(lp2250
S'23.5357133333'
p2251
aS'87.29777'
p2252
aS'08:24:09'
p2253
aI316
aI41
aI14
aI10
aa(lp2254
S'23.5357216667'
p2255
aS'87.29759'
p2256
aS'12:06:28'
p2257
aI225
aI42
aI14
aI10
aa(lp2258
S'23.5357'
p2259
aS'87.2977533333'
p2260
aS'15:46:53'
p2261
aI248
aI43
aI7
aI10
aatp2262
a(I44
(lp2263
(lp2264
S'23.535705'
p2265
aS'87.29785'
p2266
aS'14:44:16'
p2267
aI16
aI4
aI19
aI44
aa(lp2268
S'23.5357083333'
p2269
aS'87.2979966667'
p2270
aS'13:13:02'
p2271
aI743
aI12
aI15
aI44
aa(lp2272
S'23.5358433333'
p2273
aS'87.2978666667'
p2274
aS'14:02:25'
p2275
aI157
aI24
aI13
aI44
aa(lp2276
S'23.5357533333'
p2277
aS'87.2979166667'
p2278
aS'17:17:04'
p2279
aI99
aI25
aI13
aI44
aa(lp2280
S'23.53562'
p2281
aS'87.2981266667'
p2282
aS'08:38:17'
p2283
aI6
aI31
aI15
aI44
aatp2284
a(I51
(lp2285
(lp2286
S'23.5355466667'
p2287
aS'87.2982733333'
p2288
aS'11:04:11'
p2289
aI6
aI6
aI19
aI51
aa(lp2290
S'23.5355616667'
p2291
aS'87.2981766667'
p2292
aS'13:01:55'
p2293
aI71
aI9
aI17
aI51
aa(lp2294
S'23.53566'
p2295
aS'87.2981766667'
p2296
aS'14:05:11'
p2297
aI7
aI24
aI14
aI51
aa(lp2298
S'23.53557'
p2299
aS'87.2982583333'
p2300
aS'09:10:29'
p2301
aI2
aI38
aI23
aI51
aa(lp2302
S'23.5355583333'
p2303
aS'87.2984533333'
p2304
aS'17:38:55'
p2305
aI7
aI40
aI18
aI51
aatp2306
a(I29
(lp2307
(lp2308
S'23.535355'
p2309
aS'87.29873'
p2310
aS'16:53:21'
p2311
aI8
aI2
aI20
aI29
aa(lp2312
S'23.53546'
p2313
aS'87.298665'
p2314
aS'17:35:52'
p2315
aI4
aI5
aI13
aI29
aa(lp2316
S'23.5354033333'
p2317
aS'87.2986483333'
p2318
aS'14:00:56'
p2319
aI21
aI7
aI16
aI29
aa(lp2320
S'23.5355416667'
p2321
aS'87.2985666667'
p2322
aS'17:21:56'
p2323
aI19
aI8
aI14
aI29
aa(lp2324
S'23.5353583333'
p2325
aS'87.29868'
p2326
aS'13:02:46'
p2327
aI19
aI9
aI18
aI29
aa(lp2328
S'23.535420000000002'
p2329
aS'87.29868'
p2330
aS'19:22:29'
p2331
aI14
aI10
aI20
aI29
aa(lp2332
S'23.5354733333'
p2333
aS'87.2986483333'
p2334
aS'13:15:00'
p2335
aI9
aI12
aI16
aI29
aa(lp2336
S'23.535335'
p2337
aS'87.298665'
p2338
aS'10:24:03'
p2339
aI4
aI14
aI16
aI29
aa(lp2340
S'23.5352366667'
p2341
aS'87.298665'
p2342
aS'10:26:14'
p2343
aI622
aI15
aI18
aI29
aa(lp2344
S'23.535445'
p2345
aS'87.298615'
p2346
aS'13:46:43'
p2347
aI3
aI16
aI15
aI29
aa(lp2348
S'23.5354366667'
p2349
aS'87.298665'
p2350
aS'05:55:52'
p2351
aI3
aI18
aI12
aI29
aa(lp2352
S'23.535465'
p2353
aS'87.298615'
p2354
aS'09:07:23'
p2355
aI34
aI19
aI18
aI29
aa(lp2356
S'23.53529'
p2357
aS'87.29868'
p2358
aS'14:44:30'
p2359
aI36
aI20
aI12
aI29
aa(lp2360
S'23.5351966667'
p2361
aS'87.2986316667'
p2362
aS'17:37:56'
p2363
aI17
aI21
aI17
aI29
aa(lp2364
S'23.5352766667'
p2365
aS'87.298665'
p2366
aS'11:17:27'
p2367
aI1
aI23
aI21
aI29
aa(lp2368
S'23.5354516667'
p2369
aS'87.29868'
p2370
aS'17:19:11'
p2371
aI31
aI25
aI14
aI29
aa(lp2372
S'23.535265'
p2373
aS'87.2987466667'
p2374
aS'12:22:27'
p2375
aI18
aI28
aI17
aI29
aa(lp2376
S'23.5351716667'
p2377
aS'87.29868'
p2378
aS'18:42:31'
p2379
aI12
aI30
aI17
aI29
aa(lp2380
S'23.5354166667'
p2381
aS'87.2986966667'
p2382
aS'13:46:41'
p2383
aI20
aI35
aI14
aI29
aa(lp2384
S'23.53544'
p2385
aS'87.298665'
p2386
aS'08:29:41'
p2387
aI12
aI41
aI15
aI29
aatp2388
a(I31
(lp2389
(lp2390
S'23.5333766667'
p2391
aS'87.3065416667'
p2392
aS'16:55:39'
p2393
aI13
aI2
aI22
aI31
aa(lp2394
S'23.5333766667'
p2395
aS'87.3065583333'
p2396
aS'17:24:07'
p2397
aI6
aI8
aI15
aI31
aa(lp2398
S'23.5333033333'
p2399
aS'87.3065916667'
p2400
aS'09:21:42'
p2401
aI11
aI11
aI10
aI31
aa(lp2402
S'23.5333366667'
p2403
aS'87.3065583333'
p2404
aS'10:29:17'
p2405
aI4
aI15
aI19
aI31
aa(lp2406
S'23.533348333299998'
p2407
aS'87.3065583333'
p2408
aS'05:57:33'
p2409
aI3
aI18
aI13
aI31
aa(lp2410
S'23.5333816667'
p2411
aS'87.3065583333'
p2412
aS'17:21:27'
p2413
aI5
aI25
aI15
aI31
aa(lp2414
S'23.53341'
p2415
aS'87.30646'
p2416
aS'18:42:42'
p2417
aI13
aI26
aI11
aI31
aa(lp2418
S'23.533215'
p2419
aS'87.30664'
p2420
aS'15:12:19'
p2421
aI22
aI29
aI13
aI31
aa(lp2422
S'23.5333816667'
p2423
aS'87.3065266667'
p2424
aS'13:49:10'
p2425
aI3
aI35
aI15
aI31
aa(lp2426
S'23.5332516667'
p2427
aS'87.30664'
p2428
aS'09:12:30'
p2429
aI2
aI38
aI24
aI31
aa(lp2430
S'23.5333766667'
p2431
aS'87.30651'
p2432
aS'14:47:16'
p2433
aI184
aI39
aI18
aI31
aatp2434
a(I11
(lp2435
(lp2436
S'23.5281966667'
p2437
aS'87.311165'
p2438
aS'13:48:50'
p2439
aI6
aI1
aI11
aI11
aa(lp2440
S'23.5281766667'
p2441
aS'87.3112133333'
p2442
aS'16:57:39'
p2443
aI72
aI2
aI23
aI11
aa(lp2444
S'23.5281533333'
p2445
aS'87.311165'
p2446
aS'14:47:44'
p2447
aI8
aI4
aI20
aI11
aa(lp2448
S'23.52821'
p2449
aS'87.311165'
p2450
aS'17:39:23'
p2451
aI17
aI5
aI14
aI11
aa(lp2452
S'23.5281966667'
p2453
aS'87.3111483333'
p2454
aS'11:07:55'
p2455
aI13
aI6
aI20
aI11
aa(lp2456
S'23.5281316667'
p2457
aS'87.3111483333'
p2458
aS'14:04:40'
p2459
aI8
aI7
aI17
aI11
aa(lp2460
S'23.5282183333'
p2461
aS'87.3111966667'
p2462
aS'17:25:42'
p2463
aI43
aI8
aI16
aI11
aa(lp2464
S'23.5281683333'
p2465
aS'87.31118000000001'
p2466
aS'19:26:21'
p2467
aI32
aI10
aI21
aI11
aa(lp2468
S'23.5281966667'
p2469
aS'87.3111483333'
p2470
aS'09:23:35'
p2471
aI80
aI11
aI11
aI11
aa(lp2472
S'23.5282183333'
p2473
aS'87.3111966667'
p2474
aS'13:19:04'
p2475
aI38
aI12
aI17
aI11
aa(lp2476
S'23.5281933333'
p2477
aS'87.311165'
p2478
aS'16:47:29'
p2479
aI2447
aI13
aI19
aI11
aa(lp2480
S'23.5279416667'
p2481
aS'87.311115'
p2482
aS'10:28:08'
p2483
aI100
aI14
aI17
aI11
aa(lp2484
S'23.52821'
p2485
aS'87.311165'
p2486
aS'10:30:47'
p2487
aI16
aI15
aI20
aI11
aa(lp2488
S'23.528145'
p2489
aS'87.3111483333'
p2490
aS'16:58:39'
p2491
aI27
aI17
aI15
aI11
aa(lp2492
S'23.5281966667'
p2493
aS'87.3111316667'
p2494
aS'05:58:55'
p2495
aI14
aI18
aI14
aI11
aa(lp2496
S'23.528145'
p2497
aS'87.3111483333'
p2498
aS'09:11:42'
p2499
aI61
aI19
aI19
aI11
aa(lp2500
S'23.5282833333'
p2501
aS'87.3111966667'
p2502
aS'14:48:30'
p2503
aI5
aI20
aI13
aI11
aa(lp2504
S'23.5280066667'
p2505
aS'87.311165'
p2506
aS'17:41:45'
p2507
aI46
aI21
aI18
aI11
aa(lp2508
S'23.5282133333'
p2509
aS'87.311115'
p2510
aS'11:20:21'
p2511
aI7
aI23
aI22
aI11
aa(lp2512
S'23.5282016667'
p2513
aS'87.3111966667'
p2514
aS'17:22:51'
p2515
aI10
aI25
aI16
aI11
aa(lp2516
S'23.5282183333'
p2517
aS'87.3111483333'
p2518
aS'18:44:30'
p2519
aI58
aI26
aI12
aI11
aa(lp2520
S'23.5281116667'
p2521
aS'87.311115'
p2522
aS'07:41:55'
p2523
aI5
aI27
aI17
aI11
aa(lp2524
S'23.528125'
p2525
aS'87.3112133333'
p2526
aS'12:25:59'
p2527
aI39
aI28
aI18
aI11
aa(lp2528
S'23.5281933333'
p2529
aS'87.311165'
p2530
aS'15:14:23'
p2531
aI33
aI29
aI14
aI11
aa(lp2532
S'23.5282183333'
p2533
aS'87.3111483333'
p2534
aS'18:45:54'
p2535
aI86
aI30
aI18
aI11
aa(lp2536
S'23.5282016667'
p2537
aS'87.31118'
p2538
aS'08:40:52'
p2539
aI30
aI31
aI16
aI11
aa(lp2540
S'23.52819'
p2541
aS'87.3112466667'
p2542
aS'12:04:37'
p2543
aI55
aI32
aI12
aI11
aa(lp2544
S'23.528185'
p2545
aS'87.3112133333'
p2546
aS'10:27:43'
p2547
aI7
aI34
aI19
aI11
aa(lp2548
S'23.528205'
p2549
aS'87.3112133333'
p2550
aS'13:50:51'
p2551
aI12
aI35
aI16
aI11
aa(lp2552
S'23.5282183333'
p2553
aS'87.3111966667'
p2554
aS'17:00:40'
p2555
aI15
aI36
aI24
aI11
aa(lp2556
S'23.5282866667'
p2557
aS'87.31123000000001'
p2558
aS'05:55:23'
p2559
aI10
aI37
aI11
aI11
aa(lp2560
S'23.52816'
p2561
aS'87.3112133333'
p2562
aS'09:14:00'
p2563
aI10
aI38
aI25
aI11
aa(lp2564
S'23.52819'
p2565
aS'87.31118'
p2566
aS'14:49:28'
p2567
aI33
aI39
aI19
aI11
aa(lp2568
S'23.5281733333'
p2569
aS'87.3111966667'
p2570
aS'08:33:26'
p2571
aI70
aI41
aI17
aI11
aa(lp2572
S'23.5282266667'
p2573
aS'87.3111483333'
p2574
aS'12:12:38'
p2575
aI57
aI42
aI15
aI11
aa(lp2576
S'23.52816'
p2577
aS'87.311165'
p2578
aS'15:53:17'
p2579
aI57
aI43
aI9
aI11
aatp2580
a(I12
(lp2581
(lp2582
S'23.527095'
p2583
aS'87.31118'
p2584
aS'13:49:25'
p2585
aI70
aI1
aI12
aI12
aa(lp2586
S'23.5271516667'
p2587
aS'87.3112466667'
p2588
aS'16:59:00'
p2589
aI79
aI2
aI24
aI12
aa(lp2590
S'23.5271483333'
p2591
aS'87.3112133333'
p2592
aS'09:10:29'
p2593
aI59
aI3
aI21
aI12
aa(lp2594
S'23.5272933333'
p2595
aS'87.3111483333'
p2596
aS'14:05:10'
p2597
aI10
aI7
aI18
aI12
aa(lp2598
S'23.52729'
p2599
aS'87.3111966667'
p2600
aS'17:27:05'
p2601
aI21
aI8
aI17
aI12
aa(lp2602
S'23.5270983333'
p2603
aS'87.3111966667'
p2604
aS'13:06:57'
p2605
aI100
aI9
aI20
aI12
aa(lp2606
S'23.527115'
p2607
aS'87.3111966667'
p2608
aS'09:25:28'
p2609
aI9
aI11
aI12
aI12
aa(lp2610
S'23.5271116667'
p2611
aS'87.31123'
p2612
aS'13:20:13'
p2613
aI54
aI12
aI18
aI12
aa(lp2614
S'23.5272366667'
p2615
aS'87.31118'
p2616
aS'16:49:23'
p2617
aI3
aI13
aI20
aI12
aa(lp2618
S'23.527225'
p2619
aS'87.3111316667'
p2620
aS'10:29:53'
p2621
aI19
aI14
aI18
aI12
aa(lp2622
S'23.52714'
p2623
aS'87.31118'
p2624
aS'10:31:33'
p2625
aI23
aI15
aI21
aI12
aa(lp2626
S'23.5272133333'
p2627
aS'87.311165'
p2628
aS'13:50:28'
p2629
aI1889
aI16
aI17
aI12
aa(lp2630
S'23.5272866667'
p2631
aS'87.31118'
p2632
aS'16:59:33'
p2633
aI3
aI17
aI16
aI12
aa(lp2634
S'23.5271483333'
p2635
aS'87.3111966667'
p2636
aS'14:49:21'
p2637
aI66
aI20
aI14
aI12
aa(lp2638
S'23.5272783333'
p2639
aS'87.311165'
p2640
aS'17:42:36'
p2641
aI48
aI21
aI19
aI12
aa(lp2642
S'23.52714'
p2643
aS'87.3111'
p2644
aS'11:20:52'
p2645
aI76
aI23
aI23
aI12
aa(lp2646
S'23.5272216667'
p2647
aS'87.3111966667'
p2648
aS'17:23:26'
p2649
aI68
aI25
aI17
aI12
aa(lp2650
S'23.5272'
p2651
aS'87.311115'
p2652
aS'07:42:28'
p2653
aI45
aI27
aI18
aI12
aa(lp2654
S'23.5270983333'
p2655
aS'87.31118'
p2656
aS'15:25:22'
p2657
aI26
aI33
aI11
aI12
aa(lp2658
S'23.52727'
p2659
aS'87.3112133333'
p2660
aS'13:51:46'
p2661
aI17
aI35
aI17
aI12
aa(lp2662
S'23.5272866667'
p2663
aS'87.311165'
p2664
aS'17:01:27'
p2665
aI3
aI36
aI25
aI12
aa(lp2666
S'23.5273016667'
p2667
aS'87.311165'
p2668
aS'09:14:45'
p2669
aI9
aI38
aI27
aI12
aa(lp2670
S'23.527155'
p2671
aS'87.311165'
p2672
aS'17:42:07'
p2673
aI66
aI40
aI19
aI12
aa(lp2674
S'23.5272'
p2675
aS'87.311165'
p2676
aS'08:35:11'
p2677
aI9
aI41
aI18
aI12
aa(lp2678
S'23.527355'
p2679
aS'87.311165'
p2680
aS'12:13:59'
p2681
aI5
aI42
aI16
aI12
aa(lp2682
S'23.5272783333'
p2683
aS'87.31118'
p2684
aS'15:54:44'
p2685
aI9
aI43
aI10
aI12
aatp2686
a(I14
(lp2687
(lp2688
S'23.5192733333'
p2689
aS'87.3112616667'
p2690
aS'13:52:17'
p2691
aI1
aI1
aI14
aI14
aa(lp2692
S'23.5192816667'
p2693
aS'87.311295'
p2694
aS'17:01:40'
p2695
aI4
aI2
aI25
aI14
aa(lp2696
S'23.5193033333'
p2697
aS'87.3112616667'
p2698
aS'09:12:40'
p2699
aI1
aI3
aI22
aI14
aa(lp2700
S'23.51938'
p2701
aS'87.311295'
p2702
aS'17:42:04'
p2703
aI19
aI5
aI15
aI14
aa(lp2704
S'23.5193466667'
p2705
aS'87.3112616667'
p2706
aS'14:07:41'
p2707
aI442
aI7
aI19
aI14
aa(lp2708
S'23.51942'
p2709
aS'87.311295'
p2710
aS'17:29:26'
p2711
aI8
aI8
aI18
aI14
aa(lp2712
S'23.5192666667'
p2713
aS'87.3112783333'
p2714
aS'13:09:53'
p2715
aI1
aI9
aI21
aI14
aa(lp2716
S'23.5193633333'
p2717
aS'87.3112783333'
p2718
aS'09:27:02'
p2719
aI6
aI11
aI13
aI14
aa(lp2720
S'23.5193516667'
p2721
aS'87.311295'
p2722
aS'16:51:22'
p2723
aI6
aI13
aI21
aI14
aa(lp2724
S'23.5193633333'
p2725
aS'87.3112783333'
p2726
aS'10:31:53'
p2727
aI9
aI14
aI19
aI14
aa(lp2728
S'23.51934'
p2729
aS'87.3112616667'
p2730
aS'10:33:50'
p2731
aI8
aI15
aI22
aI14
aa(lp2732
S'23.519375'
p2733
aS'87.3112466667'
p2734
aS'06:01:02'
p2735
aI2
aI18
aI15
aI14
aa(lp2736
S'23.5193033333'
p2737
aS'87.3112466667'
p2738
aS'09:14:51'
p2739
aI6
aI19
aI20
aI14
aa(lp2740
S'23.5192783333'
p2741
aS'87.3111966667'
p2742
aS'14:09:56'
p2743
aI1
aI24
aI15
aI14
aa(lp2744
S'23.5194116667'
p2745
aS'87.31136'
p2746
aS'17:26:28'
p2747
aI58
aI25
aI18
aI14
aa(lp2748
S'23.519405'
p2749
aS'87.3112616667'
p2750
aS'18:49:36'
p2751
aI4
aI30
aI19
aI14
aa(lp2752
S'23.51923'
p2753
aS'87.311295'
p2754
aS'10:29:16'
p2755
aI1
aI34
aI20
aI14
aa(lp2756
S'23.5193516667'
p2757
aS'87.3113266667'
p2758
aS'13:54:06'
p2759
aI5
aI35
aI19
aI14
aa(lp2760
S'23.5193683333'
p2761
aS'87.311295'
p2762
aS'14:52:24'
p2763
aI10
aI39
aI20
aI14
aa(lp2764
S'23.519375'
p2765
aS'87.31123'
p2766
aS'12:16:17'
p2767
aI6
aI42
aI17
aI14
aa(lp2768
S'23.5193683333'
p2769
aS'87.3113266667'
p2770
aS'15:56:52'
p2771
aI29
aI43
aI11
aI14
aatp2772
a(I15
(lp2773
(lp2774
S'23.5112133333'
p2775
aS'87.3106433333'
p2776
aS'13:53:36'
p2777
aI1
aI1
aI15
aI15
aa(lp2778
S'23.5111766667'
p2779
aS'87.3106116667'
p2780
aS'10:33:54'
p2781
aI5
aI14
aI20
aI15
aa(lp2782
S'23.5114083333'
p2783
aS'87.3105783333'
p2784
aS'06:02:46'
p2785
aI2
aI18
aI16
aI15
aa(lp2786
S'23.5111316667'
p2787
aS'87.3107083333'
p2788
aS'13:55:39'
p2789
aI3
aI35
aI20
aI15
aa(lp2790
S'23.5111516667'
p2791
aS'87.3106266667'
p2792
aS'12:18:51'
p2793
aI39
aI42
aI19
aI15
aa(lp2794
S'23.5111516667'
p2795
aS'87.3106766667'
p2796
aS'15:59:16'
p2797
aI5
aI43
aI12
aI15
aatp2798
a(I52
(lp2799
(lp2800
S'23.51081'
p2801
aS'87.3106766667'
p2802
aS'11:11:43'
p2803
aI2
aI6
aI21
aI52
aa(lp2804
S'23.510815'
p2805
aS'87.3106933333'
p2806
aS'14:10:30'
p2807
aI3
aI7
aI20
aI52
aa(lp2808
S'23.5107416667'
p2809
aS'87.31066'
p2810
aS'19:31:31'
p2811
aI3
aI10
aI23
aI52
aa(lp2812
S'23.5107533333'
p2813
aS'87.3106766667'
p2814
aS'13:24:02'
p2815
aI81
aI12
aI20
aI52
aa(lp2816
S'23.51075'
p2817
aS'87.31066'
p2818
aS'10:34:11'
p2819
aI3
aI14
aI21
aI52
aa(lp2820
S'23.510595'
p2821
aS'87.3106766667'
p2822
aS'17:28:54'
p2823
aI14
aI25
aI19
aI52
aa(lp2824
S'23.5108266667'
p2825
aS'87.310725'
p2826
aS'13:55:53'
p2827
aI1
aI35
aI21
aI52
aa(lp2828
S'23.5107283333'
p2829
aS'87.3106933333'
p2830
aS'14:54:15'
p2831
aI4
aI39
aI21
aI52
aa(lp2832
S'23.5106716667'
p2833
aS'87.3106266667'
p2834
aS'12:19:15'
p2835
aI1
aI42
aI20
aI52
aa(lp2836
S'23.5108016667'
p2837
aS'87.3106933333'
p2838
aS'15:59:32'
p2839
aI5
aI43
aI13
aI52
aatp2840
a(I53
(lp2841
(lp2842
S'23.507145'
p2843
aS'87.3098466667'
p2844
aS'11:12:42'
p2845
aI3
aI6
aI22
aI53
aa(lp2846
S'23.50714'
p2847
aS'87.3098466667'
p2848
aS'10:35:14'
p2849
aI1
aI14
aI22
aI53
aa(lp2850
S'23.5071966667'
p2851
aS'87.3098616667'
p2852
aS'18:52:06'
p2853
aI24
aI30
aI20
aI53
aa(lp2854
S'23.50712'
p2855
aS'87.3098783333'
p2856
aS'08:47:00'
p2857
aI1
aI31
aI17
aI53
aa(lp2858
S'23.50703'
p2859
aS'87.30983'
p2860
aS'17:04:53'
p2861
aI2
aI36
aI26
aI53
aa(lp2862
S'23.507185'
p2863
aS'87.3098783333'
p2864
aS'09:19:25'
p2865
aI1
aI38
aI28
aI53
aa(lp2866
S'23.5071366667'
p2867
aS'87.309895'
p2868
aS'08:39:48'
p2869
aI2
aI41
aI20
aI53
aatp2870
a(I32
(lp2871
(lp2872
S'23.5036933333'
p2873
aS'87.307795'
p2874
aS'17:04:43'
p2875
aI55
aI2
aI26
aI32
aa(lp2876
S'23.5036083333'
p2877
aS'87.3076983333'
p2878
aS'09:15:10'
p2879
aI9
aI3
aI23
aI32
aa(lp2880
S'23.503645'
p2881
aS'87.3077633333'
p2882
aS'14:53:30'
p2883
aI12
aI4
aI22
aI32
aa(lp2884
S'23.503625'
p2885
aS'87.3076983333'
p2886
aS'17:45:42'
p2887
aI26
aI5
aI16
aI32
aa(lp2888
S'23.50384'
p2889
aS'87.307845'
p2890
aS'11:13:51'
p2891
aI34
aI6
aI23
aI32
aa(lp2892
S'23.50362'
p2893
aS'87.3077133333'
p2894
aS'14:12:06'
p2895
aI14
aI7
aI21
aI32
aa(lp2896
S'23.5037183333'
p2897
aS'87.3077783333'
p2898
aS'17:33:18'
p2899
aI10
aI8
aI19
aI32
aa(lp2900
S'23.503605'
p2901
aS'87.3077466667'
p2902
aS'13:13:03'
p2903
aI25
aI9
aI22
aI32
aa(lp2904
S'23.50358'
p2905
aS'87.3077466667'
p2906
aS'19:33:28'
p2907
aI37
aI10
aI24
aI32
aa(lp2908
S'23.5036483333'
p2909
aS'87.3077466667'
p2910
aS'09:30:39'
p2911
aI12
aI11
aI14
aI32
aa(lp2912
S'23.503625'
p2913
aS'87.3077633333'
p2914
aS'13:25:56'
p2915
aI31
aI12
aI21
aI32
aa(lp2916
S'23.5036366667'
p2917
aS'87.30773'
p2918
aS'16:55:10'
p2919
aI18
aI13
aI22
aI32
aa(lp2920
S'23.5036416667'
p2921
aS'87.3077633333'
p2922
aS'10:36:30'
p2923
aI21
aI14
aI23
aI32
aa(lp2924
S'23.5036366667'
p2925
aS'87.30773'
p2926
aS'10:38:49'
p2927
aI1217
aI15
aI23
aI32
aa(lp2928
S'23.5036366667'
p2929
aS'87.3077633333'
p2930
aS'13:55:54'
p2931
aI14
aI16
aI18
aI32
aa(lp2932
S'23.5036116667'
p2933
aS'87.3077133333'
p2934
aS'09:18:54'
p2935
aI4
aI19
aI21
aI32
aa(lp2936
S'23.503715'
p2937
aS'87.3077783333'
p2938
aS'14:56:39'
p2939
aI7
aI20
aI16
aI32
aa(lp2940
S'23.5036416667'
p2941
aS'87.30773'
p2942
aS'17:47:48'
p2943
aI5
aI21
aI21
aI32
aa(lp2944
S'23.503685'
p2945
aS'87.3076983333'
p2946
aS'11:26:04'
p2947
aI7
aI23
aI24
aI32
aa(lp2948
S'23.5036783333'
p2949
aS'87.3076816667'
p2950
aS'14:12:51'
p2951
aI6
aI24
aI16
aI32
aa(lp2952
S'23.5036933333'
p2953
aS'87.3078116667'
p2954
aS'17:30:48'
p2955
aI19
aI25
aI20
aI32
aa(lp2956
S'23.503665'
p2957
aS'87.3077133333'
p2958
aS'18:51:03'
p2959
aI27
aI26
aI15
aI32
aa(lp2960
S'23.5035883333'
p2961
aS'87.307795'
p2962
aS'07:47:28'
p2963
aI22
aI27
aI19
aI32
aa(lp2964
S'23.5035966667'
p2965
aS'87.3078116667'
p2966
aS'12:31:08'
p2967
aI4
aI28
aI19
aI32
aa(lp2968
S'23.503625'
p2969
aS'87.3077466667'
p2970
aS'15:21:07'
p2971
aI36
aI29
aI15
aI32
aa(lp2972
S'23.5036733333'
p2973
aS'87.3077133333'
p2974
aS'18:53:17'
p2975
aI12
aI30
aI21
aI32
aa(lp2976
S'23.503605'
p2977
aS'87.30773'
p2978
aS'08:47:57'
p2979
aI10
aI31
aI18
aI32
aa(lp2980
S'23.5036366667'
p2981
aS'87.3078116667'
p2982
aS'12:11:37'
p2983
aI6
aI32
aI13
aI32
aa(lp2984
S'23.503625'
p2985
aS'87.30773'
p2986
aS'15:31:02'
p2987
aI1
aI33
aI12
aI32
aa(lp2988
S'23.50356'
p2989
aS'87.3076816667'
p2990
aS'10:31:56'
p2991
aI38
aI34
aI21
aI32
aa(lp2992
S'23.503645'
p2993
aS'87.3077633333'
p2994
aS'13:57:29'
p2995
aI8
aI35
aI22
aI32
aa(lp2996
S'23.5035716667'
p2997
aS'87.30773'
p2998
aS'17:05:59'
p2999
aI10
aI36
aI27
aI32
aa(lp3000
S'23.503605'
p3001
aS'87.3077133333'
p3002
aS'05:59:37'
p3003
aI6
aI37
aI12
aI32
aa(lp3004
S'23.5036333333'
p3005
aS'87.30773'
p3006
aS'09:20:27'
p3007
aI11
aI38
aI29
aI32
aa(lp3008
S'23.50362'
p3009
aS'87.3077466667'
p3010
aS'14:56:07'
p3011
aI7
aI39
aI22
aI32
aa(lp3012
S'23.5037016667'
p3013
aS'87.307795'
p3014
aS'17:47:50'
p3015
aI8
aI40
aI21
aI32
aa(lp3016
S'23.5036333333'
p3017
aS'87.3077633333'
p3018
aS'08:41:03'
p3019
aI5
aI41
aI21
aI32
aa(lp3020
S'23.5036483333'
p3021
aS'87.3077783333'
p3022
aS'16:01:29'
p3023
aI7
aI43
aI14
aI32
aatp3024
a(I16
(lp3025
(lp3026
S'23.5002716667'
p3027
aS'87.306005'
p3028
aS'13:56:17'
p3029
aI8
aI1
aI16
aI16
aa(lp3030
S'23.5004066667'
p3031
aS'87.3060216667'
p3032
aS'17:06:44'
p3033
aI723
aI2
aI27
aI16
aa(lp3034
S'23.50028'
p3035
aS'87.3059883333'
p3036
aS'09:16:27'
p3037
aI10
aI3
aI24
aI16
aa(lp3038
S'23.50032'
p3039
aS'87.3059716667'
p3040
aS'17:47:22'
p3041
aI16
aI5
aI17
aI16
aa(lp3042
S'23.5002916667'
p3043
aS'87.3059883333'
p3044
aS'11:16:26'
p3045
aI9
aI6
aI24
aI16
aa(lp3046
S'23.500345'
p3047
aS'87.3059716667'
p3048
aS'14:13:24'
p3049
aI3
aI7
aI22
aI16
aa(lp3050
S'23.5003416667'
p3051
aS'87.3059716667'
p3052
aS'17:34:47'
p3053
aI15
aI8
aI20
aI16
aa(lp3054
S'23.5003166667'
p3055
aS'87.3059883333'
p3056
aS'13:14:44'
p3057
aI28
aI9
aI23
aI16
aa(lp3058
S'23.5003783333'
p3059
aS'87.3059716667'
p3060
aS'09:31:57'
p3061
aI16
aI11
aI15
aI16
aa(lp3062
S'23.50039'
p3063
aS'87.3059566667'
p3064
aS'13:27:40'
p3065
aI9
aI12
aI22
aI16
aa(lp3066
S'23.5001133333'
p3067
aS'87.3062333333'
p3068
aS'16:56:58'
p3069
aI20
aI13
aI23
aI16
aa(lp3070
S'23.50028'
p3071
aS'87.3059883333'
p3072
aS'10:40:35'
p3073
aI8
aI15
aI24
aI16
aa(lp3074
S'23.5004866667'
p3075
aS'87.3059883333'
p3076
aS'13:57:02'
p3077
aI13
aI16
aI19
aI16
aa(lp3078
S'23.5002966667'
p3079
aS'87.306005'
p3080
aS'17:04:54'
p3081
aI11
aI17
aI17
aI16
aa(lp3082
S'23.5004216667'
p3083
aS'87.3059883333'
p3084
aS'14:57:50'
p3085
aI17
aI20
aI17
aI16
aa(lp3086
S'23.50028'
p3087
aS'87.3060216667'
p3088
aS'17:48:51'
p3089
aI6
aI21
aI22
aI16
aa(lp3090
S'23.50039'
p3091
aS'87.3059233333'
p3092
aS'11:27:20'
p3093
aI6
aI23
aI25
aI16
aa(lp3094
S'23.5004433333'
p3095
aS'87.30594'
p3096
aS'14:13:58'
p3097
aI11
aI24
aI17
aI16
aa(lp3098
S'23.500435'
p3099
aS'87.3060216667'
p3100
aS'17:32:03'
p3101
aI20
aI25
aI21
aI16
aa(lp3102
S'23.5003783333'
p3103
aS'87.3059716667'
p3104
aS'18:52:38'
p3105
aI11
aI26
aI16
aI16
aa(lp3106
S'23.5003933333'
p3107
aS'87.3060533333'
p3108
aS'12:32:32'
p3109
aI27
aI28
aI20
aI16
aa(lp3110
S'23.5003333333'
p3111
aS'87.3059883333'
p3112
aS'15:22:59'
p3113
aI7
aI29
aI16
aI16
aa(lp3114
S'23.5004383333'
p3115
aS'87.3059566667'
p3116
aS'18:54:37'
p3117
aI4
aI30
aI22
aI16
aa(lp3118
S'23.5003483333'
p3119
aS'87.3059566667'
p3120
aS'10:33:40'
p3121
aI4
aI34
aI22
aI16
aa(lp3122
S'23.5003366667'
p3123
aS'87.3060383333'
p3124
aS'13:58:31'
p3125
aI9
aI35
aI23
aI16
aa(lp3126
S'23.50028'
p3127
aS'87.3060216667'
p3128
aS'17:07:06'
p3129
aI5
aI36
aI28
aI16
aa(lp3130
S'23.5002466667'
p3131
aS'87.3060216667'
p3132
aS'17:48:59'
p3133
aI29
aI40
aI22
aI16
aa(lp3134
S'23.50032'
p3135
aS'87.306005'
p3136
aS'08:42:14'
p3137
aI6
aI41
aI22
aI16
aa(lp3138
S'23.500305'
p3139
aS'87.3060866667'
p3140
aS'12:22:38'
p3141
aI13
aI42
aI21
aI16
aatp3142
a(I55
(lp3143
(lp3144
S'23.4965116667'
p3145
aS'87.3134916667'
p3146
aS'14:15:32'
p3147
aI5
aI7
aI23
aI55
aa(lp3148
S'23.4965116667'
p3149
aS'87.313655'
p3150
aS'14:16:04'
p3151
aI53
aI24
aI18
aI55
aa(lp3152
S'23.496475'
p3153
aS'87.313525'
p3154
aS'15:25:02'
p3155
aI5
aI29
aI18
aI55
aa(lp3156
S'23.4965283333'
p3157
aS'87.3135733333'
p3158
aS'18:56:26'
p3159
aI3
aI30
aI23
aI55
aa(lp3160
S'23.4964666667'
p3161
aS'87.3136216667'
p3162
aS'09:23:21'
p3163
aI4
aI38
aI30
aI55
aa(lp3164
S'23.4964833333'
p3165
aS'87.3136383333'
p3166
aS'16:05:05'
p3167
aI4
aI43
aI16
aI55
aatp3168
a(I37
(lp3169
(lp3170
S'23.4963333333'
p3171
aS'87.313915'
p3172
aS'09:18:21'
p3173
aI3
aI3
aI25
aI37
aa(lp3174
S'23.4964266667'
p3175
aS'87.3137516667'
p3176
aS'17:36:48'
p3177
aI2
aI8
aI21
aI37
aa(lp3178
S'23.4964383333'
p3179
aS'87.313655'
p3180
aS'13:16:49'
p3181
aI9
aI9
aI24
aI37
aa(lp3182
S'23.4963416667'
p3183
aS'87.313915'
p3184
aS'10:39:44'
p3185
aI4
aI14
aI24
aI37
aa(lp3186
S'23.4964016667'
p3187
aS'87.3136383333'
p3188
aS'13:58:46'
p3189
aI4
aI16
aI20
aI37
aa(lp3190
S'23.4963983333'
p3191
aS'87.3137366667'
p3192
aS'17:06:23'
p3193
aI89
aI17
aI18
aI37
aa(lp3194
S'23.4964433333'
p3195
aS'87.313655'
p3196
aS'09:21:51'
p3197
aI4
aI19
aI22
aI37
aa(lp3198
S'23.496495'
p3199
aS'87.3136866667'
p3200
aS'17:34:08'
p3201
aI1
aI25
aI22
aI37
aa(lp3202
S'23.4962266667'
p3203
aS'87.3139633333'
p3204
aS'12:35:05'
p3205
aI9
aI28
aI21
aI37
aatp3206
a(I17
(lp3207
(lp3208
S'23.4946816667'
p3209
aS'87.316845'
p3210
aS'13:58:48'
p3211
aI1
aI1
aI17
aI17
aa(lp3212
S'23.4947666667'
p3213
aS'87.3168933333'
p3214
aS'17:10:07'
p3215
aI202
aI2
aI28
aI17
aa(lp3216
S'23.4946816667'
p3217
aS'87.3168283333'
p3218
aS'09:19:51'
p3219
aI372
aI3
aI26
aI17
aa(lp3220
S'23.494755'
p3221
aS'87.3168766667'
p3222
aS'14:57:19'
p3223
aI278
aI4
aI23
aI17
aa(lp3224
S'23.4946966667'
p3225
aS'87.316845'
p3226
aS'11:20:03'
p3227
aI1
aI6
aI25
aI17
aa(lp3228
S'23.4947616667'
p3229
aS'87.3168766667'
p3230
aS'17:37:52'
p3231
aI251
aI8
aI22
aI17
aa(lp3232
S'23.494725'
p3233
aS'87.3168616667'
p3234
aS'19:38:01'
p3235
aI1
aI10
aI25
aI17
aa(lp3236
S'23.494705'
p3237
aS'87.316845'
p3238
aS'09:35:46'
p3239
aI242
aI11
aI17
aI17
aa(lp3240
S'23.4946733333'
p3241
aS'87.316845'
p3242
aS'13:30:46'
p3243
aI33
aI12
aI23
aI17
aa(lp3244
S'23.49473'
p3245
aS'87.316845'
p3246
aS'10:41:03'
p3247
aI33
aI14
aI25
aI17
aa(lp3248
S'23.4946816667'
p3249
aS'87.3168116667'
p3250
aS'10:44:04'
p3251
aI234
aI15
aI25
aI17
aa(lp3252
S'23.4947016667'
p3253
aS'87.3168116667'
p3254
aS'13:59:48'
p3255
aI8
aI16
aI21
aI17
aa(lp3256
S'23.4946166667'
p3257
aS'87.3168616667'
p3258
aS'17:08:32'
p3259
aI332
aI17
aI19
aI17
aa(lp3260
S'23.494664999999998'
p3261
aS'87.3168283333'
p3262
aS'06:09:53'
p3263
aI204
aI18
aI19
aI17
aa(lp3264
S'23.4946816667'
p3265
aS'87.3168283333'
p3266
aS'09:23:14'
p3267
aI1
aI19
aI23
aI17
aa(lp3268
S'23.4947866667'
p3269
aS'87.3168616667'
p3270
aS'15:00:46'
p3271
aI224
aI20
aI18
aI17
aa(lp3272
S'23.494755'
p3273
aS'87.3168616667'
p3274
aS'17:51:30'
p3275
aI84
aI21
aI23
aI17
aa(lp3276
S'23.49475'
p3277
aS'87.316845'
p3278
aS'11:30:36'
p3279
aI56
aI23
aI26
aI17
aa(lp3280
S'23.4947866667'
p3281
aS'87.3168116667'
p3282
aS'14:19:21'
p3283
aI292
aI24
aI19
aI17
aa(lp3284
S'23.4947916667'
p3285
aS'87.3169433333'
p3286
aS'17:35:38'
p3287
aI255
aI25
aI23
aI17
aa(lp3288
S'23.4946733333'
p3289
aS'87.3167966667'
p3290
aS'18:55:39'
p3291
aI25
aI26
aI17
aI17
aa(lp3292
S'23.4947333333'
p3293
aS'87.3168283333'
p3294
aS'07:51:48'
p3295
aI4
aI27
aI20
aI17
aa(lp3296
S'23.4946366667'
p3297
aS'87.31691'
p3298
aS'12:36:44'
p3299
aI253
aI28
aI22
aI17
aa(lp3300
S'23.49466'
p3301
aS'87.3168116667'
p3302
aS'15:26:57'
p3303
aI102
aI29
aI19
aI17
aa(lp3304
S'23.4947333333'
p3305
aS'87.3168116667'
p3306
aS'18:57:54'
p3307
aI20
aI30
aI24
aI17
aa(lp3308
S'23.494685'
p3309
aS'87.3168283333'
p3310
aS'08:53:34'
p3311
aI10541
aI31
aI19
aI17
aa(lp3312
S'23.49477'
p3313
aS'87.3168616667'
p3314
aS'15:35:14'
p3315
aI411
aI33
aI13
aI17
aa(lp3316
S'23.494685'
p3317
aS'87.3168616667'
p3318
aS'10:36:44'
p3319
aI317
aI34
aI23
aI17
aa(lp3320
S'23.4946966667'
p3321
aS'87.3168616667'
p3322
aS'17:09:51'
p3323
aI155
aI36
aI30
aI17
aa(lp3324
S'23.494685'
p3325
aS'87.316845'
p3326
aS'06:07:12'
p3327
aI326
aI37
aI13
aI17
aa(lp3328
S'23.4946683333'
p3329
aS'87.3168616667'
p3330
aS'09:24:43'
p3331
aI1
aI38
aI31
aI17
aa(lp3332
S'23.49475'
p3333
aS'87.3168616667'
p3334
aS'15:00:08'
p3335
aI88
aI39
aI23
aI17
aa(lp3336
S'23.4946683333'
p3337
aS'87.3168766667'
p3338
aS'08:45:45'
p3339
aI1
aI41
aI23
aI17
aa(lp3340
S'23.4946483333'
p3341
aS'87.3168283333'
p3342
aS'12:26:15'
p3343
aI10
aI42
aI23
aI17
aa(lp3344
S'23.4946816667'
p3345
aS'87.3168766667'
p3346
aS'16:08:49'
p3347
aI225
aI43
aI17
aI17
aatp3348
a.